(dp0
S"{'src_port': 1629, 'ipv4_dst': '10.0.0.51', 'ipv4_src': '111.67.76.100', 'eth_type': 2048, 'dst_port': 0, 'ip_proto': 17}"
p1
(dp2
S'packet_count'
p3
I1
sS'byte_count'
p4
I208
sS'packet_in_counter'
p5
I1
sS'time'
p6
F1623897685.799025
sS'duration'
p7
I12
sS'mean_bytes_per_pkt'
p8
I208
sS'packet_in_rate'
p9
F0.0001
sS'packet_in_count_pre_period'
p10
I1
ssS"{'src_port': 1922, 'ipv4_dst': '10.0.0.60', 'ipv4_src': '44.29.124.192', 'eth_type': 2048, 'dst_port': 0, 'ip_proto': 17}"
p11
(dp12
g3
I1
sg4
I195
sg5
I1
sg6
F1623897662.931214
sg7
I12
sg8
I195
sg9
F0.0001
sg10
I1
ssS"{'src_port': 1663, 'ipv4_dst': '75.77.128.219', 'ipv4_src': '10.0.0.41', 'eth_type': 2048, 'dst_port': 0, 'ip_proto': 17}"
p13
(dp14
g3
I0
sg4
I0
sg5
I1
sg6
F1623897690.683633
sg7
I62
sg8
I0
sg9
F0.0001
sg10
I1
ssS"{'src_port': 1629, 'ipv4_dst': '10.0.0.41', 'ipv4_src': '117.127.109.122', 'eth_type': 2048, 'dst_port': 0, 'ip_proto': 17}"
p15
(dp16
g3
I0
sg4
I0
sg5
I1
sg6
F1623897685.444511
sg7
I4
sg8
I0
sg9
F0.0001
sg10
I1
ssS"{'src_port': 1629, 'ipv4_dst': '10.0.0.60', 'ipv4_src': '217.210.201.213', 'eth_type': 2048, 'dst_port': 0, 'ip_proto': 17}"
p17
(dp18
g3
I0
sg4
I0
sg5
I1
sg6
F1623897685.444511
sg7
I3
sg8
I0
sg9
F0.0001
sg10
I1
ssS"{'src_port': 2229, 'ipv4_dst': '10.0.0.41', 'ipv4_src': '208.24.171.197', 'eth_type': 2048, 'dst_port': 0, 'ip_proto': 17}"
p19
(dp20
g3
I0
sg4
I0
sg5
I1
sg6
F1623897694.863308
sg7
I2
sg8
I0
sg9
F0.0001
sg10
I1
ssS"{'src_port': 2800, 'ipv4_dst': '10.0.0.51', 'ipv4_src': '194.22.212.20', 'eth_type': 2048, 'dst_port': 0, 'ip_proto': 17}"
p21
(dp22
g3
I1
sg4
I188
sg5
I1
sg6
F1623897693.364471
sg7
I57
sg8
I0
sg9
F0.0001
sg10
I1
ssS"{'src_port': 2229, 'ipv4_dst': '10.0.0.51', 'ipv4_src': '107.13.153.186', 'eth_type': 2048, 'dst_port': 0, 'ip_proto': 17}"
p23
(dp24
g3
I1
sg4
I188
sg5
I1
sg6
F1623897695.556481
sg7
I57
sg8
I188
sg9
F0.0001
sg10
I1
ssS"{'src_port': 1663, 'ipv4_dst': '10.0.0.60', 'ipv4_src': '148.122.31.135', 'eth_type': 2048, 'dst_port': 0, 'ip_proto': 17}"
p25
(dp26
g3
I1
sg4
I195
sg5
I1
sg6
F1623897690.786735
sg7
I45
sg8
I195
sg9
F0.0001
sg10
I1
ssS"{'src_port': 1663, 'ipv4_dst': '10.0.0.41', 'ipv4_src': '118.100.133.12', 'eth_type': 2048, 'dst_port': 0, 'ip_proto': 17}"
p27
(dp28
g3
I1
sg4
I228
sg5
I1
sg6
F1623897690.582431
sg7
I78
sg8
I228
sg9
F0.0001
sg10
I1
ssS"{'src_port': 1391, 'ipv4_dst': '10.0.0.60', 'ipv4_src': '216.243.110.91', 'eth_type': 2048, 'dst_port': 0, 'ip_proto': 17}"
p29
(dp30
g3
I1
sg4
I202
sg5
I1
sg6
F1623897652.679689
sg7
I13
sg8
I0
sg9
F0.0001
sg10
I1
ssS"{'src_port': 1731, 'ipv4_dst': '33.14.74.248', 'ipv4_src': '10.0.0.51', 'eth_type': 2048, 'dst_port': 0, 'ip_proto': 17}"
p31
(dp32
g3
I0
sg4
I0
sg5
I1
sg6
F1623897674.261253
sg7
I56
sg8
I0
sg9
F0.0001
sg10
I1
ssS"{'src_port': 1305, 'ipv4_dst': '175.113.130.14', 'ipv4_src': '10.0.0.41', 'eth_type': 2048, 'dst_port': 0, 'ip_proto': 17}"
p33
(dp34
g3
I0
sg4
I0
sg5
I1
sg6
F1623897697.439275
sg7
I33
sg8
I0
sg9
F0.0001
sg10
I1
ssS"{'src_port': 1418, 'ipv4_dst': '94.173.26.81', 'ipv4_src': '10.0.0.60', 'eth_type': 2048, 'dst_port': 0, 'ip_proto': 17}"
p35
(dp36
g3
I0
sg4
I0
sg5
I1
sg6
F1623897687.07036
sg7
I50
sg8
I0
sg9
F0.0001
sg10
I1
ssS"{'src_port': 1418, 'ipv4_dst': '10.0.0.41', 'ipv4_src': '132.232.71.89', 'eth_type': 2048, 'dst_port': 0, 'ip_proto': 17}"
p37
(dp38
g3
I1
sg4
I228
sg5
I1
sg6
F1623897686.881477
sg7
I70
sg8
I0
sg9
F0.0001
sg10
I1
ssS"{'src_port': 2229, 'ipv4_dst': '233.226.138.94', 'ipv4_src': '10.0.0.51', 'eth_type': 2048, 'dst_port': 0, 'ip_proto': 17}"
p39
(dp40
g3
I0
sg4
I0
sg5
I1
sg6
F1623897696.26296
sg7
I60
sg8
I0
sg9
F0.0001
sg10
I1
ssS"{'src_port': 2354, 'ipv4_dst': '10.0.0.41', 'ipv4_src': '216.190.176.218', 'eth_type': 2048, 'dst_port': 0, 'ip_proto': 17}"
p41
(dp42
g3
I0
sg4
I0
sg5
I1
sg6
F1623897693.905895
sg7
I61
sg8
I0
sg9
F0.0001
sg10
I1
ssS"{'src_port': 2800, 'ipv4_dst': '10.0.0.60', 'ipv4_src': '234.162.178.90', 'eth_type': 2048, 'dst_port': 0, 'ip_proto': 17}"
p43
(dp44
g3
I1
sg4
I225
sg5
I1
sg6
F1623897664.275276
sg7
I34
sg8
I0
sg9
F0.0001
sg10
I1
ssS"{'src_port': 1922, 'ipv4_dst': '10.0.0.60', 'ipv4_src': '229.24.127.80', 'eth_type': 2048, 'dst_port': 0, 'ip_proto': 17}"
p45
(dp46
g3
I1
sg4
I202
sg5
I1
sg6
F1623897663.099049
sg7
I22
sg8
I0
sg9
F0.0001
sg10
I1
ssS"{'src_port': 2981, 'ipv4_dst': '71.127.46.68', 'ipv4_src': '10.0.0.60', 'eth_type': 2048, 'dst_port': 0, 'ip_proto': 17}"
p47
(dp48
g3
I0
sg4
I0
sg5
I1
sg6
F1623897642.49864
sg7
I17
sg8
I0
sg9
F0.0001
sg10
I1
ssS"{'src_port': 2229, 'ipv4_dst': '10.0.0.51', 'ipv4_src': '194.22.212.20', 'eth_type': 2048, 'dst_port': 0, 'ip_proto': 17}"
p49
(dp50
g3
I1
sg4
I188
sg5
I1
sg6
F1623897695.556481
sg7
I57
sg8
I188
sg9
F0.0001
sg10
I1
ssS"{'src_port': 2229, 'ipv4_dst': '108.136.88.190', 'ipv4_src': '10.0.0.41', 'eth_type': 2048, 'dst_port': 0, 'ip_proto': 17}"
p51
(dp52
g3
I0
sg4
I0
sg5
I1
sg6
F1623897696.56567
sg7
I14
sg8
I0
sg9
F0.0001
sg10
I1
ssS"{'src_port': 2229, 'ipv4_dst': '40.60.165.4', 'ipv4_src': '10.0.0.60', 'eth_type': 2048, 'dst_port': 0, 'ip_proto': 17}"
p53
(dp54
g3
I0
sg4
I0
sg5
I1
sg6
F1623897695.556481
sg7
I57
sg8
I0
sg9
F0.0001
sg10
I1
ssS"{'src_port': 2800, 'ipv4_dst': '223.112.216.219', 'ipv4_src': '10.0.0.41', 'eth_type': 2048, 'dst_port': 0, 'ip_proto': 17}"
p55
(dp56
g3
I0
sg4
I0
sg5
I1
sg6
F1623897693.574774
sg7
I10
sg8
I0
sg9
F0.0001
sg10
I1
ssS"{'src_port': 1629, 'ipv4_dst': '193.96.101.98', 'ipv4_src': '10.0.0.41', 'eth_type': 2048, 'dst_port': 0, 'ip_proto': 17}"
p57
(dp58
g3
I0
sg4
I0
sg5
I1
sg6
F1623897685.616687
sg7
I61
sg8
I0
sg9
F0.0001
sg10
I1
ssS"{'src_port': 2800, 'ipv4_dst': '132.190.205.51', 'ipv4_src': '10.0.0.60', 'eth_type': 2048, 'dst_port': 0, 'ip_proto': 17}"
p59
(dp60
g3
I0
sg4
I0
sg5
I1
sg6
F1623897693.672082
sg7
I1
sg8
I0
sg9
F0.0001
sg10
I1
ssS"{'src_port': 2423, 'ipv4_dst': '10.0.0.41', 'ipv4_src': '144.161.165.161', 'eth_type': 2048, 'dst_port': 0, 'ip_proto': 17}"
p61
(dp62
g3
I0
sg4
I0
sg5
I1
sg6
F1623897693.971507
sg7
I54
sg8
I0
sg9
F0.0001
sg10
I1
ssS"{'src_port': 1305, 'ipv4_dst': '10.0.0.41', 'ipv4_src': '102.30.104.38', 'eth_type': 2048, 'dst_port': 0, 'ip_proto': 17}"
p63
(dp64
g3
I1
sg4
I206
sg5
I1
sg6
F1623897697.637028
sg7
I2
sg8
I206
sg9
F0.0001
sg10
I1
ssS"{'src_port': 1305, 'ipv4_dst': '124.98.19.144', 'ipv4_src': '10.0.0.51', 'eth_type': 2048, 'dst_port': 0, 'ip_proto': 17}"
p65
(dp66
g3
I0
sg4
I0
sg5
I1
sg6
F1623897697.134541
sg7
I63
sg8
I0
sg9
F0.0001
sg10
I1
ssS"{'src_port': 2800, 'ipv4_dst': '10.0.0.41', 'ipv4_src': '51.113.86.15', 'eth_type': 2048, 'dst_port': 0, 'ip_proto': 17}"
p67
(dp68
g3
I1
sg4
I204
sg5
I1
sg6
F1623897684.35115
sg7
I53
sg8
I0
sg9
F0.0001
sg10
I1
ssS"{'src_port': 1204, 'ipv4_dst': '10.0.0.51', 'ipv4_src': '5.15.49.241', 'eth_type': 2048, 'dst_port': 0, 'ip_proto': 17}"
p69
(dp70
g3
I1
sg4
I204
sg5
I1
sg6
F1623897673.571044
sg7
I40
sg8
I204
sg9
F0.0001
sg10
I1
ssS"{'src_port': 1731, 'ipv4_dst': '10.0.0.41', 'ipv4_src': '91.84.160.183', 'eth_type': 2048, 'dst_port': 0, 'ip_proto': 17}"
p71
(dp72
g3
I1
sg4
I206
sg5
I1
sg6
F1623897674.646274
sg7
I53
sg8
I0
sg9
F0.0001
sg10
I1
ssS"{'src_port': 2214, 'ipv4_dst': '10.0.0.41', 'ipv4_src': '228.224.89.140', 'eth_type': 2048, 'dst_port': 0, 'ip_proto': 17}"
p73
(dp74
g3
I0
sg4
I0
sg5
I1
sg6
F1623897693.77308
sg7
I86
sg8
I0
sg9
F0.0001
sg10
I1
ssS"{'src_port': 1418, 'ipv4_dst': '75.146.247.70', 'ipv4_src': '10.0.0.41', 'eth_type': 2048, 'dst_port': 0, 'ip_proto': 17}"
p75
(dp76
g3
I0
sg4
I0
sg5
I1
sg6
F1623897686.483523
sg7
I52
sg8
I0
sg9
F0.0001
sg10
I1
ssS"{'src_port': 2229, 'ipv4_dst': '36.76.135.8', 'ipv4_src': '10.0.0.51', 'eth_type': 2048, 'dst_port': 0, 'ip_proto': 17}"
p77
(dp78
g3
I0
sg4
I0
sg5
I1
sg6
F1623897696.165825
sg7
I72
sg8
I0
sg9
F0.0001
sg10
I1
ssS"{'src_port': 2272, 'ipv4_dst': '10.0.0.41', 'ipv4_src': '242.184.65.58', 'eth_type': 2048, 'dst_port': 0, 'ip_proto': 17}"
p79
(dp80
g3
I1
sg4
I213
sg5
I1
sg6
F1623897610.744147
sg7
I4
sg8
I0
sg9
F0.0001
sg10
I1
ssS"{'src_port': 1418, 'ipv4_dst': '204.61.48.166', 'ipv4_src': '10.0.0.60', 'eth_type': 2048, 'dst_port': 0, 'ip_proto': 17}"
p81
(dp82
g3
I0
sg4
I0
sg5
I1
sg6
F1623897686.667995
sg7
I15
sg8
I0
sg9
F0.0001
sg10
I1
ssS"{'src_port': 1731, 'ipv4_dst': '10.0.0.51', 'ipv4_src': '170.53.81.231', 'eth_type': 2048, 'dst_port': 0, 'ip_proto': 17}"
p83
(dp84
g3
I1
sg4
I169
sg5
I1
sg6
F1623897674.261253
sg7
I48
sg8
I0
sg9
F0.0001
sg10
I1
ssS"{'src_port': 1305, 'ipv4_dst': '10.0.0.51', 'ipv4_src': '126.54.92.15', 'eth_type': 2048, 'dst_port': 0, 'ip_proto': 17}"
p85
(dp86
g3
I1
sg4
I172
sg5
I1
sg6
F1623897697.338809
sg7
I46
sg8
I172
sg9
F0.0001
sg10
I1
ssS"{'src_port': 2229, 'ipv4_dst': '18.10.46.45', 'ipv4_src': '10.0.0.51', 'eth_type': 2048, 'dst_port': 0, 'ip_proto': 17}"
p87
(dp88
g3
I0
sg4
I0
sg5
I1
sg6
F1623897695.556481
sg7
I54
sg8
I0
sg9
F0.0001
sg10
I1
ssS"{'src_port': 1731, 'ipv4_dst': '44.115.194.96', 'ipv4_src': '10.0.0.41', 'eth_type': 2048, 'dst_port': 0, 'ip_proto': 17}"
p89
(dp90
g3
I0
sg4
I0
sg5
I1
sg6
F1623897674.17496
sg7
I73
sg8
I0
sg9
F0.0001
sg10
I1
ssS"{'src_port': 2800, 'ipv4_dst': '243.170.18.212', 'ipv4_src': '10.0.0.41', 'eth_type': 2048, 'dst_port': 0, 'ip_proto': 17}"
p91
(dp92
g3
I0
sg4
I0
sg5
I1
sg6
F1623897684.533823
sg7
I4
sg8
I0
sg9
F0.0001
sg10
I1
ssS"{'src_port': 1418, 'ipv4_dst': '10.0.0.41', 'ipv4_src': '218.29.74.67', 'eth_type': 2048, 'dst_port': 0, 'ip_proto': 17}"
p93
(dp94
g3
I1
sg4
I169
sg5
I1
sg6
F1623897687.256926
sg7
I6
sg8
I0
sg9
F0.0001
sg10
I1
ssS"{'src_port': 1305, 'ipv4_dst': '41.219.0.66', 'ipv4_src': '10.0.0.41', 'eth_type': 2048, 'dst_port': 0, 'ip_proto': 17}"
p95
(dp96
g3
I0
sg4
I0
sg5
I1
sg6
F1623897697.235446
sg7
I68
sg8
I0
sg9
F0.0001
sg10
I1
ssS"{'src_port': 2229, 'ipv4_dst': '10.0.0.41', 'ipv4_src': '86.176.109.76', 'eth_type': 2048, 'dst_port': 0, 'ip_proto': 17}"
p97
(dp98
g3
I0
sg4
I0
sg5
I1
sg6
F1623897696.26296
sg7
I46
sg8
I171
sg9
F0.0001
sg10
I1
ssS"{'src_port': 2229, 'ipv4_dst': '227.105.126.113', 'ipv4_src': '10.0.0.51', 'eth_type': 2048, 'dst_port': 0, 'ip_proto': 17}"
p99
(dp100
g3
I0
sg4
I0
sg5
I1
sg6
F1623897696.374242
sg7
I41
sg8
I0
sg9
F0.0001
sg10
I1
ssS"{'src_port': 2872, 'ipv4_dst': '10.0.0.41', 'ipv4_src': '215.61.126.7', 'eth_type': 2048, 'dst_port': 0, 'ip_proto': 17}"
p101
(dp102
g3
I0
sg4
I0
sg5
I1
sg6
F1623897694.17528
sg7
I2
sg8
I0
sg9
F0.0001
sg10
I1
ssS"{'src_port': 2800, 'ipv4_dst': '10.0.0.51', 'ipv4_src': '172.159.74.14', 'eth_type': 2048, 'dst_port': 0, 'ip_proto': 17}"
p103
(dp104
g3
I1
sg4
I184
sg5
I1
sg6
F1623897693.574774
sg7
I25
sg8
I0
sg9
F0.0001
sg10
I1
ssS"{'src_port': 1174, 'ipv4_dst': '10.0.0.60', 'ipv4_src': '157.112.42.234', 'eth_type': 2048, 'dst_port': 0, 'ip_proto': 17}"
p105
(dp106
g3
I0
sg4
I0
sg5
I1
sg6
F1623897694.03835
sg7
I23
sg8
I0
sg9
F0.0001
sg10
I1
ssS"{'src_port': 2981, 'ipv4_dst': '10.0.0.41', 'ipv4_src': '181.164.12.5', 'eth_type': 2048, 'dst_port': 0, 'ip_proto': 17}"
p107
(dp108
g3
I1
sg4
I228
sg5
I1
sg6
F1623897642.298474
sg7
I32
sg8
I0
sg9
F0.0001
sg10
I1
ssS"{'src_port': 2800, 'ipv4_dst': '229.166.193.197', 'ipv4_src': '10.0.0.41', 'eth_type': 2048, 'dst_port': 0, 'ip_proto': 17}"
p109
(dp110
g3
I0
sg4
I0
sg5
I1
sg6
F1623897693.364471
sg7
I70
sg8
I0
sg9
F0.0001
sg10
I1
ssS"{'src_port': 1629, 'ipv4_dst': '10.0.0.51', 'ipv4_src': '72.232.211.254', 'eth_type': 2048, 'dst_port': 0, 'ip_proto': 17}"
p111
(dp112
g3
I0
sg4
I0
sg5
I1
sg6
F1623897685.075406
sg7
I58
sg8
I0
sg9
F0.0001
sg10
I1
ssS"{'src_port': 1922, 'ipv4_dst': '10.0.0.51', 'ipv4_src': '129.134.152.215', 'eth_type': 2048, 'dst_port': 0, 'ip_proto': 17}"
p113
(dp114
g3
I1
sg4
I195
sg5
I1
sg6
F1623897662.756272
sg7
I46
sg8
I195
sg9
F0.0001
sg10
I1
ssS"{'src_port': 1418, 'ipv4_dst': '89.136.113.21', 'ipv4_src': '10.0.0.41', 'eth_type': 2048, 'dst_port': 0, 'ip_proto': 17}"
p115
(dp116
g3
I0
sg4
I0
sg5
I1
sg6
F1623897680.482264
sg7
I73
sg8
I0
sg9
F0.0001
sg10
I1
ssS"{'src_port': 1663, 'ipv4_dst': '10.0.0.51', 'ipv4_src': '193.21.171.167', 'eth_type': 2048, 'dst_port': 0, 'ip_proto': 17}"
p117
(dp118
g3
I1
sg4
I206
sg5
I1
sg6
F1623897691.08698
sg7
I2
sg8
I206
sg9
F0.0001
sg10
I1
ssS"{'src_port': 2981, 'ipv4_dst': '164.246.17.98', 'ipv4_src': '10.0.0.41', 'eth_type': 2048, 'dst_port': 0, 'ip_proto': 17}"
p119
(dp120
g3
I0
sg4
I0
sg5
I1
sg6
F1623897642.49864
sg7
I23
sg8
I0
sg9
F0.0001
sg10
I1
ssS"{'src_port': 2229, 'ipv4_dst': '10.0.0.60', 'ipv4_src': '212.201.48.43', 'eth_type': 2048, 'dst_port': 0, 'ip_proto': 17}"
p121
(dp122
g3
I1
sg4
I191
sg5
I1
sg6
F1623897695.867852
sg7
I22
sg8
I191
sg9
F0.0001
sg10
I1
ssS"{'src_port': 2800, 'ipv4_dst': '228.59.118.160', 'ipv4_src': '10.0.0.41', 'eth_type': 2048, 'dst_port': 0, 'ip_proto': 17}"
p123
(dp124
g3
I0
sg4
I0
sg5
I1
sg6
F1623897693.574774
sg7
I25
sg8
I0
sg9
F0.0001
sg10
I1
ssS"{'src_port': 1629, 'ipv4_dst': '10.0.0.41', 'ipv4_src': '66.66.232.187', 'eth_type': 2048, 'dst_port': 0, 'ip_proto': 17}"
p125
(dp126
g3
I0
sg4
I0
sg5
I1
sg6
F1623897685.444511
sg7
I4
sg8
I0
sg9
F0.0001
sg10
I1
ssS"{'src_port': 2815, 'ipv4_dst': '10.0.0.60', 'ipv4_src': '250.31.181.255', 'eth_type': 2048, 'dst_port': 0, 'ip_proto': 17}"
p127
(dp128
g3
I0
sg4
I0
sg5
I1
sg6
F1623897696.764549
sg7
I47
sg8
I0
sg9
F0.0001
sg10
I1
ssS"{'src_port': 1204, 'ipv4_dst': '10.0.0.41', 'ipv4_src': '67.129.201.244', 'eth_type': 2048, 'dst_port': 0, 'ip_proto': 17}"
p129
(dp130
g3
I0
sg4
I0
sg5
I1
sg6
F1623897671.250299
sg7
I34
sg8
I0
sg9
F0.0001
sg10
I1
ssS"{'src_port': 1418, 'ipv4_dst': '10.0.0.60', 'ipv4_src': '1.29.70.236', 'eth_type': 2048, 'dst_port': 0, 'ip_proto': 17}"
p131
(dp132
g3
I1
sg4
I202
sg5
I1
sg6
F1623897686.483523
sg7
I42
sg8
I0
sg9
F0.0001
sg10
I1
ssS"{'src_port': 2981, 'ipv4_dst': '10.0.0.51', 'ipv4_src': '203.184.108.147', 'eth_type': 2048, 'dst_port': 0, 'ip_proto': 17}"
p133
(dp134
g3
I1
sg4
I169
sg5
I1
sg6
F1623897642.49864
sg7
I18
sg8
I0
sg9
F0.0001
sg10
I1
ssS"{'src_port': 2800, 'ipv4_dst': '183.49.80.64', 'ipv4_src': '10.0.0.41', 'eth_type': 2048, 'dst_port': 0, 'ip_proto': 17}"
p135
(dp136
g3
I0
sg4
I0
sg5
I1
sg6
F1623897684.247246
sg7
I71
sg8
I0
sg9
F0.0001
sg10
I1
ssS"{'src_port': 1701, 'ipv4_dst': '10.0.0.60', 'ipv4_src': '58.176.20.44', 'eth_type': 2048, 'dst_port': 0, 'ip_proto': 17}"
p137
(dp138
g3
I0
sg4
I0
sg5
I1
sg6
F1623897693.77308
sg7
I82
sg8
I0
sg9
F0.0001
sg10
I1
ssS"{'src_port': 2800, 'ipv4_dst': '77.249.164.137', 'ipv4_src': '10.0.0.51', 'eth_type': 2048, 'dst_port': 0, 'ip_proto': 17}"
p139
(dp140
g3
I0
sg4
I0
sg5
I1
sg6
F1623897664.532955
sg7
I6
sg8
I0
sg9
F0.0001
sg10
I1
ssS"{'src_port': 2800, 'ipv4_dst': '75.104.169.106', 'ipv4_src': '10.0.0.51', 'eth_type': 2048, 'dst_port': 0, 'ip_proto': 17}"
p141
(dp142
g3
I0
sg4
I0
sg5
I1
sg6
F1623897664.275276
sg7
I42
sg8
I0
sg9
F0.0001
sg10
I1
ssS"{'src_port': 1418, 'ipv4_dst': '26.76.251.119', 'ipv4_src': '10.0.0.60', 'eth_type': 2048, 'dst_port': 0, 'ip_proto': 17}"
p143
(dp144
g3
I0
sg4
I0
sg5
I1
sg6
F1623897687.256926
sg7
I4
sg8
I0
sg9
F0.0001
sg10
I1
ssS"{'src_port': 2238, 'ipv4_dst': '10.0.0.41', 'ipv4_src': '144.164.240.207', 'eth_type': 2048, 'dst_port': 0, 'ip_proto': 17}"
p145
(dp146
g3
I1
sg4
I213
sg5
I1
sg6
F1623897621.147239
sg7
I15
sg8
I0
sg9
F0.0001
sg10
I1
ssS"{'src_port': 2800, 'ipv4_dst': '238.69.123.11', 'ipv4_src': '10.0.0.41', 'eth_type': 2048, 'dst_port': 0, 'ip_proto': 17}"
p147
(dp148
g3
I0
sg4
I0
sg5
I1
sg6
F1623897684.533823
sg7
I4
sg8
I0
sg9
F0.0001
sg10
I1
ssS"{'src_port': 1305, 'ipv4_dst': '111.40.171.20', 'ipv4_src': '10.0.0.60', 'eth_type': 2048, 'dst_port': 0, 'ip_proto': 17}"
p149
(dp150
g3
I0
sg4
I0
sg5
I1
sg6
F1623897697.849106
sg7
I1
sg8
I0
sg9
F0.0001
sg10
I1
ssS"{'src_port': 2229, 'ipv4_dst': '10.0.0.51', 'ipv4_src': '119.224.200.246', 'eth_type': 2048, 'dst_port': 0, 'ip_proto': 17}"
p151
(dp152
g3
I0
sg4
I0
sg5
I1
sg6
F1623897696.374242
sg7
I46
sg8
I172
sg9
F0.0001
sg10
I1
ssS"{'src_port': 1305, 'ipv4_dst': '223.222.167.74', 'ipv4_src': '10.0.0.41', 'eth_type': 2048, 'dst_port': 0, 'ip_proto': 17}"
p153
(dp154
g3
I0
sg4
I0
sg5
I1
sg6
F1623897697.637028
sg7
I1
sg8
I0
sg9
F0.0001
sg10
I1
ssS"{'src_port': 1204, 'ipv4_dst': '246.28.219.228', 'ipv4_src': '10.0.0.60', 'eth_type': 2048, 'dst_port': 0, 'ip_proto': 17}"
p155
(dp156
g3
I0
sg4
I0
sg5
I1
sg6
F1623897673.571044
sg7
I26
sg8
I0
sg9
F0.0001
sg10
I1
ssS"{'src_port': 1204, 'ipv4_dst': '26.60.8.195', 'ipv4_src': '10.0.0.51', 'eth_type': 2048, 'dst_port': 0, 'ip_proto': 17}"
p157
(dp158
g3
I0
sg4
I0
sg5
I1
sg6
F1623897673.392483
sg7
I64
sg8
I0
sg9
F0.0001
sg10
I1
ssS"{'src_port': 1204, 'ipv4_dst': '78.227.52.158', 'ipv4_src': '10.0.0.51', 'eth_type': 2048, 'dst_port': 0, 'ip_proto': 17}"
p159
(dp160
g3
I0
sg4
I0
sg5
I1
sg6
F1623897673.655305
sg7
I23
sg8
I0
sg9
F0.0001
sg10
I1
ssS"{'src_port': 2229, 'ipv4_dst': '34.27.97.184', 'ipv4_src': '10.0.0.51', 'eth_type': 2048, 'dst_port': 0, 'ip_proto': 17}"
p161
(dp162
g3
I0
sg4
I0
sg5
I1
sg6
F1623897696.56567
sg7
I14
sg8
I0
sg9
F0.0001
sg10
I1
ssS"{'src_port': 1731, 'ipv4_dst': '10.0.0.51', 'ipv4_src': '240.206.139.182', 'eth_type': 2048, 'dst_port': 0, 'ip_proto': 17}"
p163
(dp164
g3
I1
sg4
I229
sg5
I1
sg6
F1623897674.17496
sg7
I64
sg8
I0
sg9
F0.0001
sg10
I1
ssS"{'src_port': 1391, 'ipv4_dst': '31.52.227.137', 'ipv4_src': '10.0.0.51', 'eth_type': 2048, 'dst_port': 0, 'ip_proto': 17}"
p165
(dp166
g3
I0
sg4
I0
sg5
I1
sg6
F1623897650.573376
sg7
I48
sg8
I0
sg9
F0.0001
sg10
I1
ssS"{'src_port': 1305, 'ipv4_dst': '227.251.246.244', 'ipv4_src': '10.0.0.60', 'eth_type': 2048, 'dst_port': 0, 'ip_proto': 17}"
p167
(dp168
g3
I0
sg4
I0
sg5
I1
sg6
F1623897697.539215
sg7
I22
sg8
I0
sg9
F0.0001
sg10
I1
ssS"{'src_port': 1731, 'ipv4_dst': '10.0.0.51', 'ipv4_src': '96.118.38.254', 'eth_type': 2048, 'dst_port': 0, 'ip_proto': 17}"
p169
(dp170
g3
I1
sg4
I188
sg5
I1
sg6
F1623897674.73211
sg7
I33
sg8
I0
sg9
F0.0001
sg10
I1
ssS"{'src_port': 1418, 'ipv4_dst': '120.110.208.82', 'ipv4_src': '10.0.0.60', 'eth_type': 2048, 'dst_port': 0, 'ip_proto': 17}"
p171
(dp172
g3
I0
sg4
I0
sg5
I1
sg6
F1623897686.483523
sg7
I47
sg8
I0
sg9
F0.0001
sg10
I1
ssS"{'src_port': 1663, 'ipv4_dst': '10.0.0.41', 'ipv4_src': '171.188.19.216', 'eth_type': 2048, 'dst_port': 0, 'ip_proto': 17}"
p173
(dp174
g3
I1
sg4
I171
sg5
I1
sg6
F1623897690.683633
sg7
I63
sg8
I171
sg9
F0.0001
sg10
I1
ssS"{'src_port': 1629, 'ipv4_dst': '117.106.90.8', 'ipv4_src': '10.0.0.60', 'eth_type': 2048, 'dst_port': 0, 'ip_proto': 17}"
p175
(dp176
g3
I0
sg4
I0
sg5
I1
sg6
F1623897685.799025
sg7
I15
sg8
I0
sg9
F0.0001
sg10
I1
ssS"{'src_port': 1418, 'ipv4_dst': '10.0.0.41', 'ipv4_src': '91.58.156.12', 'eth_type': 2048, 'dst_port': 0, 'ip_proto': 17}"
p177
(dp178
g3
I1
sg4
I206
sg5
I1
sg6
F1623897686.975615
sg7
I63
sg8
I0
sg9
F0.0001
sg10
I1
ssS"{'src_port': 1418, 'ipv4_dst': '10.0.0.41', 'ipv4_src': '89.40.16.26', 'eth_type': 2048, 'dst_port': 0, 'ip_proto': 17}"
p179
(dp180
g3
I1
sg4
I169
sg5
I1
sg6
F1623897687.256926
sg7
I4
sg8
I0
sg9
F0.0001
sg10
I1
ssS"{'src_port': 1663, 'ipv4_dst': '120.180.61.3', 'ipv4_src': '10.0.0.41', 'eth_type': 2048, 'dst_port': 0, 'ip_proto': 17}"
p181
(dp182
g3
I0
sg4
I0
sg5
I1
sg6
F1623897691.08698
sg7
I1
sg8
I0
sg9
F0.0001
sg10
I1
ssS"{'src_port': 2981, 'ipv4_dst': '10.0.0.41', 'ipv4_src': '213.198.175.37', 'eth_type': 2048, 'dst_port': 0, 'ip_proto': 17}"
p183
(dp184
g3
I1
sg4
I171
sg5
I1
sg6
F1623897642.370895
sg7
I7
sg8
I0
sg9
F0.0001
sg10
I1
ssS"{'src_port': 1629, 'ipv4_dst': '10.0.0.41', 'ipv4_src': '49.37.232.22', 'eth_type': 2048, 'dst_port': 0, 'ip_proto': 17}"
p185
(dp186
g3
I0
sg4
I0
sg5
I1
sg6
F1623897685.346041
sg7
I13
sg8
I0
sg9
F0.0001
sg10
I1
ssS"{'src_port': 1204, 'ipv4_dst': '166.166.119.83', 'ipv4_src': '10.0.0.41', 'eth_type': 2048, 'dst_port': 0, 'ip_proto': 17}"
p187
(dp188
g3
I0
sg4
I0
sg5
I1
sg6
F1623897673.739689
sg7
I4
sg8
I0
sg9
F0.0001
sg10
I1
ssS"{'src_port': 2981, 'ipv4_dst': '47.47.247.39', 'ipv4_src': '10.0.0.41', 'eth_type': 2048, 'dst_port': 0, 'ip_proto': 17}"
p189
(dp190
g3
I0
sg4
I0
sg5
I1
sg6
F1623897642.432558
sg7
I35
sg8
I0
sg9
F0.0001
sg10
I1
ssS"{'src_port': 1204, 'ipv4_dst': '101.186.1.72', 'ipv4_src': '10.0.0.41', 'eth_type': 2048, 'dst_port': 0, 'ip_proto': 17}"
p191
(dp192
g3
I0
sg4
I0
sg5
I1
sg6
F1623897670.994067
sg7
I66
sg8
I0
sg9
F0.0001
sg10
I1
ssS"{'src_port': 1204, 'ipv4_dst': '156.245.202.55', 'ipv4_src': '10.0.0.51', 'eth_type': 2048, 'dst_port': 0, 'ip_proto': 17}"
p193
(dp194
g3
I0
sg4
I0
sg5
I1
sg6
F1623897671.163775
sg7
I37
sg8
I0
sg9
F0.0001
sg10
I1
ssS"{'src_port': 1663, 'ipv4_dst': '10.0.0.41', 'ipv4_src': '66.89.253.150', 'eth_type': 2048, 'dst_port': 0, 'ip_proto': 17}"
p195
(dp196
g3
I1
sg4
I169
sg5
I1
sg6
F1623897690.988352
sg7
I14
sg8
I169
sg9
F0.0001
sg10
I1
ssS"{'src_port': 1418, 'ipv4_dst': '67.63.230.179', 'ipv4_src': '10.0.0.41', 'eth_type': 2048, 'dst_port': 0, 'ip_proto': 17}"
p197
(dp198
g3
I0
sg4
I0
sg5
I1
sg6
F1623897686.385761
sg7
I55
sg8
I0
sg9
F0.0001
sg10
I1
ssS"{'src_port': 1418, 'ipv4_dst': '10.0.0.60', 'ipv4_src': '153.117.41.252', 'eth_type': 2048, 'dst_port': 0, 'ip_proto': 17}"
p199
(dp200
g3
I1
sg4
I171
sg5
I1
sg6
F1623897686.758926
sg7
I11
sg8
I0
sg9
F0.0001
sg10
I1
ssS"{'src_port': 1731, 'ipv4_dst': '156.195.242.131', 'ipv4_src': '10.0.0.60', 'eth_type': 2048, 'dst_port': 0, 'ip_proto': 17}"
p201
(dp202
g3
I0
sg4
I0
sg5
I1
sg6
F1623897674.261253
sg7
I53
sg8
I0
sg9
F0.0001
sg10
I1
ssS"{'src_port': 2800, 'ipv4_dst': '10.0.0.41', 'ipv4_src': '144.178.62.55', 'eth_type': 2048, 'dst_port': 0, 'ip_proto': 17}"
p203
(dp204
g3
I1
sg4
I213
sg5
I1
sg6
F1623897684.247246
sg7
I82
sg8
I0
sg9
F0.0001
sg10
I1
ssS"{'src_port': 2229, 'ipv4_dst': '211.110.211.71', 'ipv4_src': '10.0.0.51', 'eth_type': 2048, 'dst_port': 0, 'ip_proto': 17}"
p205
(dp206
g3
I0
sg4
I0
sg5
I1
sg6
F1623897695.867852
sg7
I22
sg8
I0
sg9
F0.0001
sg10
I1
ssS"{'src_port': 1731, 'ipv4_dst': '10.0.0.41', 'ipv4_src': '252.219.188.119', 'eth_type': 2048, 'dst_port': 0, 'ip_proto': 17}"
p207
(dp208
g3
I1
sg4
I177
sg5
I1
sg6
F1623897674.903542
sg7
I5
sg8
I0
sg9
F0.0001
sg10
I1
ssS"{'src_port': 2800, 'ipv4_dst': '10.0.0.41', 'ipv4_src': '243.117.57.246', 'eth_type': 2048, 'dst_port': 0, 'ip_proto': 17}"
p209
(dp210
g3
I1
sg4
I206
sg5
I1
sg6
F1623897693.364471
sg7
I75
sg8
I0
sg9
F0.0001
sg10
I1
ssS"{'src_port': 2800, 'ipv4_dst': '219.76.73.215', 'ipv4_src': '10.0.0.60', 'eth_type': 2048, 'dst_port': 0, 'ip_proto': 17}"
p211
(dp212
g3
I0
sg4
I0
sg5
I1
sg6
F1623897664.446606
sg7
I13
sg8
I0
sg9
F0.0001
sg10
I1
ssS"{'src_port': 1922, 'ipv4_dst': '43.138.132.153', 'ipv4_src': '10.0.0.51', 'eth_type': 2048, 'dst_port': 0, 'ip_proto': 17}"
p213
(dp214
g3
I0
sg4
I0
sg5
I1
sg6
F1623897663.099049
sg7
I22
sg8
I0
sg9
F0.0001
sg10
I1
ssS"{'src_port': 1391, 'ipv4_dst': '197.165.228.212', 'ipv4_src': '10.0.0.41', 'eth_type': 2048, 'dst_port': 0, 'ip_proto': 17}"
p215
(dp216
g3
I0
sg4
I0
sg5
I1
sg6
F1623897652.606682
sg7
I41
sg8
I0
sg9
F0.0001
sg10
I1
ssS"{'src_port': 2229, 'ipv4_dst': '217.109.120.102', 'ipv4_src': '10.0.0.41', 'eth_type': 2048, 'dst_port': 0, 'ip_proto': 17}"
p217
(dp218
g3
I0
sg4
I0
sg5
I1
sg6
F1623897696.374242
sg7
I46
sg8
I0
sg9
F0.0001
sg10
I1
ssS"{'src_port': 1391, 'ipv4_dst': '40.107.250.222', 'ipv4_src': '10.0.0.41', 'eth_type': 2048, 'dst_port': 0, 'ip_proto': 17}"
p219
(dp220
g3
I0
sg4
I0
sg5
I1
sg6
F1623897652.679689
sg7
I23
sg8
I0
sg9
F0.0001
sg10
I1
ssS"{'src_port': 2800, 'ipv4_dst': '171.242.107.29', 'ipv4_src': '10.0.0.41', 'eth_type': 2048, 'dst_port': 0, 'ip_proto': 17}"
p221
(dp222
g3
I0
sg4
I0
sg5
I1
sg6
F1623897693.364471
sg7
I61
sg8
I0
sg9
F0.0001
sg10
I1
ssS"{'src_port': 2152, 'ipv4_dst': '10.0.0.51', 'ipv4_src': '58.253.190.214', 'eth_type': 2048, 'dst_port': 0, 'ip_proto': 17}"
p223
(dp224
g3
I0
sg4
I0
sg5
I1
sg6
F1623897694.106477
sg7
I2
sg8
I0
sg9
F0.0001
sg10
I1
ssS"{'src_port': 2981, 'ipv4_dst': '10.0.0.51', 'ipv4_src': '36.76.135.8', 'eth_type': 2048, 'dst_port': 0, 'ip_proto': 17}"
p225
(dp226
g3
I1
sg4
I169
sg5
I1
sg6
F1623897642.49864
sg7
I21
sg8
I0
sg9
F0.0001
sg10
I1
ssS"{'src_port': 1922, 'ipv4_dst': '214.58.15.54', 'ipv4_src': '10.0.0.51', 'eth_type': 2048, 'dst_port': 0, 'ip_proto': 17}"
p227
(dp228
g3
I0
sg4
I0
sg5
I1
sg6
F1623897662.931214
sg7
I6
sg8
I0
sg9
F0.0001
sg10
I1
ssS"{'src_port': 1305, 'ipv4_dst': '10.0.0.41', 'ipv4_src': '28.41.114.114', 'eth_type': 2048, 'dst_port': 0, 'ip_proto': 17}"
p229
(dp230
g3
I1
sg4
I204
sg5
I1
sg6
F1623897697.235446
sg7
I67
sg8
I204
sg9
F0.0001
sg10
I1
ssS"{'src_port': 2767, 'ipv4_dst': '238.62.115.101', 'ipv4_src': '10.0.0.41', 'eth_type': 2048, 'dst_port': 0, 'ip_proto': 17}"
p231
(dp232
g3
I0
sg4
I0
sg5
I1
sg6
F1623897632.22476
sg7
I5
sg8
I0
sg9
F0.0001
sg10
I1
ssS"{'src_port': 2800, 'ipv4_dst': '10.0.0.60', 'ipv4_src': '116.133.132.24', 'eth_type': 2048, 'dst_port': 0, 'ip_proto': 17}"
p233
(dp234
g3
I1
sg4
I195
sg5
I1
sg6
F1623897693.672082
sg7
I1
sg8
I195
sg9
F0.0001
sg10
I1
ssS"{'src_port': 1391, 'ipv4_dst': '10.0.0.51', 'ipv4_src': '26.60.8.195', 'eth_type': 2048, 'dst_port': 0, 'ip_proto': 17}"
p235
(dp236
g3
I0
sg4
I0
sg5
I1
sg6
F1623897650.573376
sg7
I44
sg8
I0
sg9
F0.0001
sg10
I1
ssS"{'src_port': 2981, 'ipv4_dst': '217.217.102.242', 'ipv4_src': '10.0.0.41', 'eth_type': 2048, 'dst_port': 0, 'ip_proto': 17}"
p237
(dp238
g3
I0
sg4
I0
sg5
I1
sg6
F1623897642.432558
sg7
I37
sg8
I0
sg9
F0.0001
sg10
I1
ssS"{'src_port': 1629, 'ipv4_dst': '10.0.0.41', 'ipv4_src': '26.164.144.148', 'eth_type': 2048, 'dst_port': 0, 'ip_proto': 17}"
p239
(dp240
g3
I0
sg4
I0
sg5
I1
sg6
F1623897685.444511
sg7
I3
sg8
I0
sg9
F0.0001
sg10
I1
ssS"{'src_port': 2767, 'ipv4_dst': '152.60.159.172', 'ipv4_src': '10.0.0.51', 'eth_type': 2048, 'dst_port': 0, 'ip_proto': 17}"
p241
(dp242
g3
I0
sg4
I0
sg5
I1
sg6
F1623897632.265582
sg7
I29
sg8
I0
sg9
F0.0001
sg10
I1
ssS"{'src_port': 2981, 'ipv4_dst': '56.94.96.102', 'ipv4_src': '10.0.0.51', 'eth_type': 2048, 'dst_port': 0, 'ip_proto': 17}"
p243
(dp244
g3
I0
sg4
I0
sg5
I1
sg6
F1623897642.235244
sg7
I7
sg8
I0
sg9
F0.0001
sg10
I1
ssS"{'src_port': 1629, 'ipv4_dst': '10.0.0.51', 'ipv4_src': '203.74.23.14', 'eth_type': 2048, 'dst_port': 0, 'ip_proto': 17}"
p245
(dp246
g3
I0
sg4
I0
sg5
I1
sg6
F1623897685.075406
sg7
I58
sg8
I0
sg9
F0.0001
sg10
I1
ssS"{'src_port': 2229, 'ipv4_dst': '10.0.0.41', 'ipv4_src': '226.79.241.228', 'eth_type': 2048, 'dst_port': 0, 'ip_proto': 17}"
p247
(dp248
g3
I1
sg4
I213
sg5
I1
sg6
F1623897696.56567
sg7
I14
sg8
I213
sg9
F0.0001
sg10
I1
ssS"{'src_port': 3028, 'ipv4_dst': '10.0.0.51', 'ipv4_src': '229.53.164.230', 'eth_type': 2048, 'dst_port': 0, 'ip_proto': 17}"
p249
(dp250
g3
I0
sg4
I0
sg5
I1
sg6
F1623897696.764549
sg7
I46
sg8
I0
sg9
F0.0001
sg10
I1
ssS"{'src_port': 1663, 'ipv4_dst': '10.0.0.41', 'ipv4_src': '57.95.157.246', 'eth_type': 2048, 'dst_port': 0, 'ip_proto': 17}"
p251
(dp252
g3
I1
sg4
I213
sg5
I1
sg6
F1623897690.988352
sg7
I14
sg8
I213
sg9
F0.0001
sg10
I1
ssS"{'src_port': 2767, 'ipv4_dst': '225.219.215.10', 'ipv4_src': '10.0.0.60', 'eth_type': 2048, 'dst_port': 0, 'ip_proto': 17}"
p253
(dp254
g3
I0
sg4
I0
sg5
I1
sg6
F1623897632.265582
sg7
I28
sg8
I0
sg9
F0.0001
sg10
I1
ssS"{'src_port': 1204, 'ipv4_dst': '10.0.0.51', 'ipv4_src': '214.135.24.213', 'eth_type': 2048, 'dst_port': 0, 'ip_proto': 17}"
p255
(dp256
g3
I1
sg4
I229
sg5
I1
sg6
F1623897673.392483
sg7
I64
sg8
I229
sg9
F0.0001
sg10
I1
ssS"{'src_port': 1305, 'ipv4_dst': '10.0.0.41', 'ipv4_src': '117.127.109.122', 'eth_type': 2048, 'dst_port': 0, 'ip_proto': 17}"
p257
(dp258
g3
I1
sg4
I213
sg5
I1
sg6
F1623897697.637028
sg7
I14
sg8
I213
sg9
F0.0001
sg10
I1
ssS"{'src_port': 1663, 'ipv4_dst': '223.239.237.108', 'ipv4_src': '10.0.0.41', 'eth_type': 2048, 'dst_port': 0, 'ip_proto': 17}"
p259
(dp260
g3
I0
sg4
I0
sg5
I1
sg6
F1623897690.582431
sg7
I74
sg8
I0
sg9
F0.0001
sg10
I1
ssS"{'src_port': 1305, 'ipv4_dst': '154.93.61.36', 'ipv4_src': '10.0.0.60', 'eth_type': 2048, 'dst_port': 0, 'ip_proto': 17}"
p261
(dp262
g3
I0
sg4
I0
sg5
I1
sg6
F1623897697.134541
sg7
I64
sg8
I0
sg9
F0.0001
sg10
I1
ssS"{'src_port': 1629, 'ipv4_dst': '10.0.0.60', 'ipv4_src': '181.94.62.248', 'eth_type': 2048, 'dst_port': 0, 'ip_proto': 17}"
p263
(dp264
g3
I1
sg4
I174
sg5
I1
sg6
F1623897685.799025
sg7
I15
sg8
I174
sg9
F0.0001
sg10
I1
ssS"{'src_port': 1259, 'ipv4_dst': '10.0.0.51', 'ipv4_src': '255.254.6.20', 'eth_type': 2048, 'dst_port': 0, 'ip_proto': 17}"
p265
(dp266
g3
I0
sg4
I0
sg5
I1
sg6
F1623897693.905895
sg7
I57
sg8
I0
sg9
F0.0001
sg10
I1
ssS"{'src_port': 1663, 'ipv4_dst': '87.109.97.152', 'ipv4_src': '10.0.0.51', 'eth_type': 2048, 'dst_port': 0, 'ip_proto': 17}"
p267
(dp268
g3
I0
sg4
I0
sg5
I1
sg6
F1623897690.988352
sg7
I21
sg8
I0
sg9
F0.0001
sg10
I1
ssS"{'src_port': 1391, 'ipv4_dst': '10.0.0.60', 'ipv4_src': '44.193.226.176', 'eth_type': 2048, 'dst_port': 0, 'ip_proto': 17}"
p269
(dp270
g3
I0
sg4
I0
sg5
I1
sg6
F1623897650.573376
sg7
I44
sg8
I0
sg9
F0.0001
sg10
I1
ssS"{'src_port': 2981, 'ipv4_dst': '10.0.0.51', 'ipv4_src': '110.103.106.118', 'eth_type': 2048, 'dst_port': 0, 'ip_proto': 17}"
p271
(dp272
g3
I0
sg4
I0
sg5
I1
sg6
F1623897642.56458
sg7
I4
sg8
I214
sg9
F0.0001
sg10
I1
ssS"{'src_port': 2800, 'ipv4_dst': '152.171.167.17', 'ipv4_src': '10.0.0.60', 'eth_type': 2048, 'dst_port': 0, 'ip_proto': 17}"
p273
(dp274
g3
I0
sg4
I0
sg5
I1
sg6
F1623897664.446606
sg7
I13
sg8
I0
sg9
F0.0001
sg10
I1
ssS"{'src_port': 1922, 'ipv4_dst': '10.0.0.51', 'ipv4_src': '75.104.169.106', 'eth_type': 2048, 'dst_port': 0, 'ip_proto': 17}"
p275
(dp276
g3
I1
sg4
I169
sg5
I1
sg6
F1623897662.756272
sg7
I42
sg8
I169
sg9
F0.0001
sg10
I1
ssS"{'src_port': 1663, 'ipv4_dst': '10.0.0.51', 'ipv4_src': '54.137.43.69', 'eth_type': 2048, 'dst_port': 0, 'ip_proto': 17}"
p277
(dp278
g3
I1
sg4
I208
sg5
I1
sg6
F1623897690.988352
sg7
I14
sg8
I208
sg9
F0.0001
sg10
I1
ssS"{'src_port': 1922, 'ipv4_dst': '50.216.245.28', 'ipv4_src': '10.0.0.60', 'eth_type': 2048, 'dst_port': 0, 'ip_proto': 17}"
p279
(dp280
g3
I0
sg4
I0
sg5
I1
sg6
F1623897662.756272
sg7
I45
sg8
I0
sg9
F0.0001
sg10
I1
ssS"{'src_port': 1305, 'ipv4_dst': '242.147.23.129', 'ipv4_src': '10.0.0.41', 'eth_type': 2048, 'dst_port': 0, 'ip_proto': 17}"
p281
(dp282
g3
I0
sg4
I0
sg5
I1
sg6
F1623897697.637028
sg7
I14
sg8
I0
sg9
F0.0001
sg10
I1
ssS"{'src_port': 1305, 'ipv4_dst': '10.0.0.60', 'ipv4_src': '246.47.217.133', 'eth_type': 2048, 'dst_port': 0, 'ip_proto': 17}"
p283
(dp284
g3
I1
sg4
I171
sg5
I1
sg6
F1623897697.73601
sg7
I12
sg8
I171
sg9
F0.0001
sg10
I1
ssS"{'src_port': 1204, 'ipv4_dst': '10.0.0.51', 'ipv4_src': '22.249.130.41', 'eth_type': 2048, 'dst_port': 0, 'ip_proto': 17}"
p285
(dp286
g3
I1
sg4
I195
sg5
I1
sg6
F1623897673.392483
sg7
I60
sg8
I195
sg9
F0.0001
sg10
I1
ssS"{'src_port': 2238, 'ipv4_dst': '59.47.37.26', 'ipv4_src': '10.0.0.41', 'eth_type': 2048, 'dst_port': 0, 'ip_proto': 17}"
p287
(dp288
g3
I0
sg4
I0
sg5
I1
sg6
F1623897621.252028
sg7
I23
sg8
I0
sg9
F0.0001
sg10
I1
ssS"{'src_port': 1204, 'ipv4_dst': '10.0.0.41', 'ipv4_src': '167.94.101.69', 'eth_type': 2048, 'dst_port': 0, 'ip_proto': 17}"
p289
(dp290
g3
I0
sg4
I0
sg5
I1
sg6
F1623897671.079406
sg7
I51
sg8
I0
sg9
F0.0001
sg10
I1
ssS"{'src_port': 1418, 'ipv4_dst': '249.108.75.190', 'ipv4_src': '10.0.0.60', 'eth_type': 2048, 'dst_port': 0, 'ip_proto': 17}"
p291
(dp292
g3
I0
sg4
I0
sg5
I1
sg6
F1623897686.975615
sg7
I58
sg8
I0
sg9
F0.0001
sg10
I1
ssS"{'src_port': 1391, 'ipv4_dst': '10.0.0.41', 'ipv4_src': '4.119.38.38', 'eth_type': 2048, 'dst_port': 0, 'ip_proto': 17}"
p293
(dp294
g3
I1
sg4
I171
sg5
I1
sg6
F1623897652.679689
sg7
I17
sg8
I0
sg9
F0.0001
sg10
I1
ssS"{'src_port': 1418, 'ipv4_dst': '80.71.244.175', 'ipv4_src': '10.0.0.60', 'eth_type': 2048, 'dst_port': 0, 'ip_proto': 17}"
p295
(dp296
g3
I0
sg4
I0
sg5
I1
sg6
F1623897686.483523
sg7
I47
sg8
I0
sg9
F0.0001
sg10
I1
ssS"{'src_port': 2800, 'ipv4_dst': '164.167.242.198', 'ipv4_src': '10.0.0.51', 'eth_type': 2048, 'dst_port': 0, 'ip_proto': 17}"
p297
(dp298
g3
I0
sg4
I0
sg5
I1
sg6
F1623897664.446606
sg7
I6
sg8
I0
sg9
F0.0001
sg10
I1
ssS"{'src_port': 1922, 'ipv4_dst': '10.0.0.51', 'ipv4_src': '56.94.96.102', 'eth_type': 2048, 'dst_port': 0, 'ip_proto': 17}"
p299
(dp300
g3
I1
sg4
I188
sg5
I1
sg6
F1623897663.099049
sg7
I27
sg8
I0
sg9
F0.0001
sg10
I1
ssS"{'src_port': 1305, 'ipv4_dst': '10.0.0.51', 'ipv4_src': '178.216.141.169', 'eth_type': 2048, 'dst_port': 0, 'ip_proto': 17}"
p301
(dp302
g3
I1
sg4
I206
sg5
I1
sg6
F1623897697.73601
sg7
I2
sg8
I206
sg9
F0.0001
sg10
I1
ssS"{'src_port': 1418, 'ipv4_dst': '10.0.0.41', 'ipv4_src': '252.219.188.119', 'eth_type': 2048, 'dst_port': 0, 'ip_proto': 17}"
p303
(dp304
g3
I1
sg4
I177
sg5
I1
sg6
F1623897686.758926
sg7
I15
sg8
I0
sg9
F0.0001
sg10
I1
ssS"{'src_port': 2231, 'ipv4_dst': '10.0.0.51', 'ipv4_src': '125.208.254.211', 'eth_type': 2048, 'dst_port': 0, 'ip_proto': 17}"
p305
(dp306
g3
I0
sg4
I0
sg5
I1
sg6
F1623897693.839194
sg7
I71
sg8
I0
sg9
F0.0001
sg10
I1
ssS"{'src_port': 1305, 'ipv4_dst': '106.152.207.130', 'ipv4_src': '10.0.0.51', 'eth_type': 2048, 'dst_port': 0, 'ip_proto': 17}"
p307
(dp308
g3
I0
sg4
I0
sg5
I1
sg6
F1623897697.539215
sg7
I25
sg8
I0
sg9
F0.0001
sg10
I1
ssS"{'src_port': 1418, 'ipv4_dst': '10.0.0.60', 'ipv4_src': '235.249.150.91', 'eth_type': 2048, 'dst_port': 0, 'ip_proto': 17}"
p309
(dp310
g3
I1
sg4
I174
sg5
I1
sg6
F1623897686.667995
sg7
I26
sg8
I0
sg9
F0.0001
sg10
I1
ssS"{'src_port': 2229, 'ipv4_dst': '10.0.0.41', 'ipv4_src': '34.87.33.164', 'eth_type': 2048, 'dst_port': 0, 'ip_proto': 17}"
p311
(dp312
g3
I1
sg4
I177
sg5
I1
sg6
F1623897695.770414
sg7
I25
sg8
I177
sg9
F0.0001
sg10
I1
ssS"{'src_port': 1291, 'ipv4_dst': '10.0.0.51', 'ipv4_src': '88.158.35.26', 'eth_type': 2048, 'dst_port': 0, 'ip_proto': 17}"
p313
(dp314
g3
I0
sg4
I0
sg5
I1
sg6
F1623897693.971507
sg7
I54
sg8
I0
sg9
F0.0001
sg10
I1
ssS"{'src_port': 1204, 'ipv4_dst': '212.135.100.55', 'ipv4_src': '10.0.0.60', 'eth_type': 2048, 'dst_port': 0, 'ip_proto': 17}"
p315
(dp316
g3
I0
sg4
I0
sg5
I1
sg6
F1623897673.392483
sg7
I60
sg8
I0
sg9
F0.0001
sg10
I1
ssS"{'src_port': 1663, 'ipv4_dst': '10.0.0.51', 'ipv4_src': '0.193.135.53', 'eth_type': 2048, 'dst_port': 0, 'ip_proto': 17}"
p317
(dp318
g3
I1
sg4
I188
sg5
I1
sg6
F1623897690.683633
sg7
I57
sg8
I188
sg9
F0.0001
sg10
I1
ssS"{'src_port': 1204, 'ipv4_dst': '10.0.0.60', 'ipv4_src': '31.188.182.179', 'eth_type': 2048, 'dst_port': 0, 'ip_proto': 17}"
p319
(dp320
g3
I1
sg4
I170
sg5
I1
sg6
F1623897673.392483
sg7
I61
sg8
I170
sg9
F0.0001
sg10
I1
ssS"{'src_port': 1418, 'ipv4_dst': '10.0.0.41', 'ipv4_src': '252.139.167.205', 'eth_type': 2048, 'dst_port': 0, 'ip_proto': 17}"
p321
(dp322
g3
I0
sg4
I0
sg5
I1
sg6
F1623897687.163614
sg7
I33
sg8
I171
sg9
F0.0001
sg10
I1
ssS"{'src_port': 2981, 'ipv4_dst': '147.49.122.197', 'ipv4_src': '10.0.0.41', 'eth_type': 2048, 'dst_port': 0, 'ip_proto': 17}"
p323
(dp324
g3
I0
sg4
I0
sg5
I1
sg6
F1623897642.370895
sg7
I15
sg8
I0
sg9
F0.0001
sg10
I1
ssS"{'src_port': 1204, 'ipv4_dst': '10.0.0.60', 'ipv4_src': '223.84.254.102', 'eth_type': 2048, 'dst_port': 0, 'ip_proto': 17}"
p325
(dp326
g3
I1
sg4
I170
sg5
I1
sg6
F1623897673.392483
sg7
I57
sg8
I170
sg9
F0.0001
sg10
I1
ssS"{'src_port': 1731, 'ipv4_dst': '117.83.143.133', 'ipv4_src': '10.0.0.41', 'eth_type': 2048, 'dst_port': 0, 'ip_proto': 17}"
p327
(dp328
g3
I0
sg4
I0
sg5
I1
sg6
F1623897674.903542
sg7
I14
sg8
I0
sg9
F0.0001
sg10
I1
ssS"{'src_port': 1391, 'ipv4_dst': '10.0.0.60', 'ipv4_src': '106.79.226.5', 'eth_type': 2048, 'dst_port': 0, 'ip_proto': 17}"
p329
(dp330
g3
I1
sg4
I202
sg5
I1
sg6
F1623897652.679689
sg7
I16
sg8
I0
sg9
F0.0001
sg10
I1
ssS"{'src_port': 2238, 'ipv4_dst': '206.2.141.195', 'ipv4_src': '10.0.0.51', 'eth_type': 2048, 'dst_port': 0, 'ip_proto': 17}"
p331
(dp332
g3
I0
sg4
I0
sg5
I1
sg6
F1623897621.252028
sg7
I6
sg8
I0
sg9
F0.0001
sg10
I1
ssS"{'src_port': 2229, 'ipv4_dst': '10.0.0.60', 'ipv4_src': '26.76.251.119', 'eth_type': 2048, 'dst_port': 0, 'ip_proto': 17}"
p333
(dp334
g3
I1
sg4
I171
sg5
I1
sg6
F1623897696.56567
sg7
I14
sg8
I0
sg9
F0.0001
sg10
I1
ssS"{'src_port': 2800, 'ipv4_dst': '10.0.0.60', 'ipv4_src': '231.140.1.51', 'eth_type': 2048, 'dst_port': 0, 'ip_proto': 17}"
p335
(dp336
g3
I1
sg4
I202
sg5
I1
sg6
F1623897693.364471
sg7
I57
sg8
I0
sg9
F0.0001
sg10
I1
ssS"{'src_port': 2800, 'ipv4_dst': '10.0.0.60', 'ipv4_src': '156.56.133.96', 'eth_type': 2048, 'dst_port': 0, 'ip_proto': 17}"
p337
(dp338
g3
I1
sg4
I202
sg5
I1
sg6
F1623897693.364471
sg7
I57
sg8
I0
sg9
F0.0001
sg10
I1
ssS"{'src_port': 2800, 'ipv4_dst': '10.0.0.60', 'ipv4_src': '149.215.194.73', 'eth_type': 2048, 'dst_port': 0, 'ip_proto': 17}"
p339
(dp340
g3
I1
sg4
I225
sg5
I1
sg6
F1623897693.364471
sg7
I57
sg8
I0
sg9
F0.0001
sg10
I1
ssS"{'src_port': 1391, 'ipv4_dst': '30.203.32.156', 'ipv4_src': '10.0.0.41', 'eth_type': 2048, 'dst_port': 0, 'ip_proto': 17}"
p341
(dp342
g3
I0
sg4
I0
sg5
I1
sg6
F1623897652.606682
sg7
I32
sg8
I0
sg9
F0.0001
sg10
I1
ssS"{'src_port': 1204, 'ipv4_dst': '10.0.0.41', 'ipv4_src': '16.233.67.199', 'eth_type': 2048, 'dst_port': 0, 'ip_proto': 17}"
p343
(dp344
g3
I1
sg4
I169
sg5
I1
sg6
F1623897673.739689
sg7
I4
sg8
I169
sg9
F0.0001
sg10
I1
ssS"{'src_port': 2229, 'ipv4_dst': '6.199.209.48', 'ipv4_src': '10.0.0.51', 'eth_type': 2048, 'dst_port': 0, 'ip_proto': 17}"
p345
(dp346
g3
I0
sg4
I0
sg5
I1
sg6
F1623897696.669206
sg7
I2
sg8
I0
sg9
F0.0001
sg10
I1
ssS"{'src_port': 1391, 'ipv4_dst': '61.249.149.166', 'ipv4_src': '10.0.0.41', 'eth_type': 2048, 'dst_port': 0, 'ip_proto': 17}"
p347
(dp348
g3
I0
sg4
I0
sg5
I1
sg6
F1623897652.752644
sg7
I6
sg8
I0
sg9
F0.0001
sg10
I1
ssS"{'src_port': 1629, 'ipv4_dst': '4.241.6.42', 'ipv4_src': '10.0.0.60', 'eth_type': 2048, 'dst_port': 0, 'ip_proto': 17}"
p349
(dp350
g3
I0
sg4
I0
sg5
I1
sg6
F1623897685.799025
sg7
I15
sg8
I0
sg9
F0.0001
sg10
I1
ssS"{'src_port': 1418, 'ipv4_dst': '10.0.0.51', 'ipv4_src': '167.128.2.72', 'eth_type': 2048, 'dst_port': 0, 'ip_proto': 17}"
p351
(dp352
g3
I1
sg4
I204
sg5
I1
sg6
F1623897686.975615
sg7
I57
sg8
I0
sg9
F0.0001
sg10
I1
ssS"{'src_port': 1731, 'ipv4_dst': '10.0.0.41', 'ipv4_src': '78.30.165.16', 'eth_type': 2048, 'dst_port': 0, 'ip_proto': 17}"
p353
(dp354
g3
I1
sg4
I228
sg5
I1
sg6
F1623897674.646274
sg7
I57
sg8
I0
sg9
F0.0001
sg10
I1
ssS"{'src_port': 1922, 'ipv4_dst': '164.36.54.71', 'ipv4_src': '10.0.0.51', 'eth_type': 2048, 'dst_port': 0, 'ip_proto': 17}"
p355
(dp356
g3
I0
sg4
I0
sg5
I1
sg6
F1623897662.84879
sg7
I23
sg8
I0
sg9
F0.0001
sg10
I1
ssS"{'src_port': 1663, 'ipv4_dst': '192.105.51.215', 'ipv4_src': '10.0.0.60', 'eth_type': 2048, 'dst_port': 0, 'ip_proto': 17}"
p357
(dp358
g3
I0
sg4
I0
sg5
I1
sg6
F1623897690.683633
sg7
I57
sg8
I0
sg9
F0.0001
sg10
I1
ssS"{'src_port': 2981, 'ipv4_dst': '10.0.0.51', 'ipv4_src': '16.84.217.224', 'eth_type': 2048, 'dst_port': 0, 'ip_proto': 17}"
p359
(dp360
g3
I1
sg4
I195
sg5
I1
sg6
F1623897642.432558
sg7
I27
sg8
I0
sg9
F0.0001
sg10
I1
ssS"{'src_port': 2229, 'ipv4_dst': '10.0.0.51', 'ipv4_src': '59.225.179.6', 'eth_type': 2048, 'dst_port': 0, 'ip_proto': 17}"
p361
(dp362
g3
I1
sg4
I208
sg5
I1
sg6
F1623897696.56567
sg7
I13
sg8
I0
sg9
F0.0001
sg10
I1
ssS"{'src_port': 1629, 'ipv4_dst': '162.148.179.233', 'ipv4_src': '10.0.0.41', 'eth_type': 2048, 'dst_port': 0, 'ip_proto': 17}"
p363
(dp364
g3
I0
sg4
I0
sg5
I1
sg6
F1623897685.799025
sg7
I15
sg8
I0
sg9
F0.0001
sg10
I1
ssS"{'src_port': 1731, 'ipv4_dst': '10.0.0.41', 'ipv4_src': '178.253.142.228', 'eth_type': 2048, 'dst_port': 0, 'ip_proto': 17}"
p365
(dp366
g3
I1
sg4
I206
sg5
I1
sg6
F1623897674.646274
sg7
I57
sg8
I0
sg9
F0.0001
sg10
I1
ssS"{'src_port': 1305, 'ipv4_dst': '10.0.0.51', 'ipv4_src': '252.110.151.69', 'eth_type': 2048, 'dst_port': 0, 'ip_proto': 17}"
p367
(dp368
g3
I1
sg4
I208
sg5
I1
sg6
F1623897697.539215
sg7
I22
sg8
I208
sg9
F0.0001
sg10
I1
ssS"{'src_port': 1922, 'ipv4_dst': '10.0.0.60', 'ipv4_src': '251.20.6.39', 'eth_type': 2048, 'dst_port': 0, 'ip_proto': 17}"
p369
(dp370
g3
I1
sg4
I231
sg5
I1
sg6
F1623897662.756272
sg7
I58
sg8
I231
sg9
F0.0001
sg10
I1
ssS"{'src_port': 1731, 'ipv4_dst': '10.0.0.60', 'ipv4_src': '223.63.201.238', 'eth_type': 2048, 'dst_port': 0, 'ip_proto': 17}"
p371
(dp372
g3
I1
sg4
I170
sg5
I1
sg6
F1623897674.261253
sg7
I56
sg8
I0
sg9
F0.0001
sg10
I1
ssS"{'src_port': 2224, 'ipv4_dst': '10.0.0.51', 'ipv4_src': '196.87.36.234', 'eth_type': 2048, 'dst_port': 0, 'ip_proto': 17}"
p373
(dp374
g3
I0
sg4
I0
sg5
I1
sg6
F1623897694.03835
sg7
I20
sg8
I0
sg9
F0.0001
sg10
I1
ssS"{'src_port': 2238, 'ipv4_dst': '10.0.0.41', 'ipv4_src': '107.201.157.217', 'eth_type': 2048, 'dst_port': 0, 'ip_proto': 17}"
p375
(dp376
g3
I1
sg4
I213
sg5
I1
sg6
F1623897621.252028
sg7
I22
sg8
I0
sg9
F0.0001
sg10
I1
ssS"{'src_port': 1731, 'ipv4_dst': '10.0.0.51', 'ipv4_src': '41.100.102.88', 'eth_type': 2048, 'dst_port': 0, 'ip_proto': 17}"
p377
(dp378
g3
I1
sg4
I184
sg5
I1
sg6
F1623897674.903542
sg7
I5
sg8
I0
sg9
F0.0001
sg10
I1
ssS"{'src_port': 1418, 'ipv4_dst': '221.145.252.93', 'ipv4_src': '10.0.0.60', 'eth_type': 2048, 'dst_port': 0, 'ip_proto': 17}"
p379
(dp380
g3
I0
sg4
I0
sg5
I1
sg6
F1623897687.163614
sg7
I26
sg8
I0
sg9
F0.0001
sg10
I1
ssS"{'src_port': 1629, 'ipv4_dst': '133.148.244.210', 'ipv4_src': '10.0.0.41', 'eth_type': 2048, 'dst_port': 0, 'ip_proto': 17}"
p381
(dp382
g3
I0
sg4
I0
sg5
I1
sg6
F1623897685.799025
sg7
I15
sg8
I0
sg9
F0.0001
sg10
I1
ssS"{'src_port': 2238, 'ipv4_dst': '101.108.45.14', 'ipv4_src': '10.0.0.51', 'eth_type': 35020, 'dst_port': 0, 'ip_proto': 17}"
p383
(dp384
g3
I79
sg4
I4740
sg5
I1
sg6
F1623897621.147239
sg7
I50
sg8
I60
sg9
F0.0001
sg10
I1
ssS"{'src_port': 1305, 'ipv4_dst': '77.57.57.12', 'ipv4_src': '10.0.0.60', 'eth_type': 2048, 'dst_port': 0, 'ip_proto': 17}"
p385
(dp386
g3
I0
sg4
I0
sg5
I1
sg6
F1623897696.925258
sg7
I71
sg8
I0
sg9
F0.0001
sg10
I1
ssS"{'src_port': 1731, 'ipv4_dst': '7.140.242.12', 'ipv4_src': '10.0.0.41', 'eth_type': 2048, 'dst_port': 0, 'ip_proto': 17}"
p387
(dp388
g3
I0
sg4
I0
sg5
I1
sg6
F1623897674.818121
sg7
I15
sg8
I0
sg9
F0.0001
sg10
I1
ssS"{'src_port': 2229, 'ipv4_dst': '10.0.0.60', 'ipv4_src': '16.63.81.20', 'eth_type': 2048, 'dst_port': 0, 'ip_proto': 17}"
p389
(dp390
g3
I1
sg4
I171
sg5
I1
sg6
F1623897696.56567
sg7
I14
sg8
I0
sg9
F0.0001
sg10
I1
ssS"{'src_port': 1305, 'ipv4_dst': '10.237.151.78', 'ipv4_src': '10.0.0.41', 'eth_type': 2048, 'dst_port': 0, 'ip_proto': 17}"
p391
(dp392
g3
I0
sg4
I0
sg5
I1
sg6
F1623897697.637028
sg7
I11
sg8
I0
sg9
F0.0001
sg10
I1
ssS"{'src_port': 2272, 'ipv4_dst': '10.0.0.41', 'ipv4_src': '22.151.185.244', 'eth_type': 2048, 'dst_port': 0, 'ip_proto': 17}"
p393
(dp394
g3
I1
sg4
I213
sg5
I1
sg6
F1623897610.744147
sg7
I12
sg8
I0
sg9
F0.0001
sg10
I1
ssS"{'src_port': 2238, 'ipv4_dst': '255.104.150.251', 'ipv4_src': '10.0.0.60', 'eth_type': 2048, 'dst_port': 0, 'ip_proto': 17}"
p395
(dp396
g3
I0
sg4
I0
sg5
I1
sg6
F1623897621.252028
sg7
I19
sg8
I0
sg9
F0.0001
sg10
I1
ssS"{'src_port': 1305, 'ipv4_dst': '175.80.170.195', 'ipv4_src': '10.0.0.60', 'eth_type': 2048, 'dst_port': 0, 'ip_proto': 17}"
p397
(dp398
g3
I0
sg4
I0
sg5
I1
sg6
F1623897697.134541
sg7
I60
sg8
I0
sg9
F0.0001
sg10
I1
ssS"{'src_port': 1204, 'ipv4_dst': '10.0.0.41', 'ipv4_src': '19.108.166.109', 'eth_type': 2048, 'dst_port': 0, 'ip_proto': 17}"
p399
(dp400
g3
I0
sg4
I0
sg5
I1
sg6
F1623897671.341024
sg7
I5
sg8
I0
sg9
F0.0001
sg10
I1
ssS"{'src_port': 2800, 'ipv4_dst': '10.0.0.60', 'ipv4_src': '139.76.108.246', 'eth_type': 2048, 'dst_port': 0, 'ip_proto': 17}"
p401
(dp402
g3
I1
sg4
I185
sg5
I1
sg6
F1623897693.672082
sg7
I2
sg8
I185
sg9
F0.0001
sg10
I1
ssS"{'src_port': 2767, 'ipv4_dst': '10.0.0.41', 'ipv4_src': '47.47.247.39', 'eth_type': 2048, 'dst_port': 0, 'ip_proto': 17}"
p403
(dp404
g3
I1
sg4
I228
sg5
I1
sg6
F1623897632.265582
sg7
I25
sg8
I0
sg9
F0.0001
sg10
I1
ssS"{'src_port': 1391, 'ipv4_dst': '10.0.0.60', 'ipv4_src': '90.192.53.155', 'eth_type': 2048, 'dst_port': 0, 'ip_proto': 17}"
p405
(dp406
g3
I1
sg4
I202
sg5
I1
sg6
F1623897652.752644
sg7
I7
sg8
I0
sg9
F0.0001
sg10
I1
ssS"{'src_port': 1922, 'ipv4_dst': '65.130.28.55', 'ipv4_src': '10.0.0.51', 'eth_type': 2048, 'dst_port': 0, 'ip_proto': 17}"
p407
(dp408
g3
I0
sg4
I0
sg5
I1
sg6
F1623897662.84879
sg7
I30
sg8
I0
sg9
F0.0001
sg10
I1
ssS"{'src_port': 1418, 'ipv4_dst': '206.242.225.11', 'ipv4_src': '10.0.0.60', 'eth_type': 2048, 'dst_port': 0, 'ip_proto': 17}"
p409
(dp410
g3
I0
sg4
I0
sg5
I1
sg6
F1623897686.881477
sg7
I75
sg8
I0
sg9
F0.0001
sg10
I1
ssS"{'src_port': 1922, 'ipv4_dst': '10.0.0.41', 'ipv4_src': '148.105.91.242', 'eth_type': 2048, 'dst_port': 0, 'ip_proto': 17}"
p411
(dp412
g3
I1
sg4
I171
sg5
I1
sg6
F1623897663.099049
sg7
I26
sg8
I171
sg9
F0.0001
sg10
I1
ssS"{'src_port': 2229, 'ipv4_dst': '10.0.0.41', 'ipv4_src': '1.72.172.1', 'eth_type': 2048, 'dst_port': 0, 'ip_proto': 17}"
p413
(dp414
g3
I1
sg4
I177
sg5
I1
sg6
F1623897695.770414
sg7
I25
sg8
I177
sg9
F0.0001
sg10
I1
ssS"{'src_port': 1305, 'ipv4_dst': '165.107.184.23', 'ipv4_src': '10.0.0.41', 'eth_type': 2048, 'dst_port': 0, 'ip_proto': 17}"
p415
(dp416
g3
I0
sg4
I0
sg5
I1
sg6
F1623897697.235446
sg7
I55
sg8
I0
sg9
F0.0001
sg10
I1
ssS"{'src_port': 2229, 'ipv4_dst': '10.0.0.60', 'ipv4_src': '211.38.190.198', 'eth_type': 2048, 'dst_port': 0, 'ip_proto': 17}"
p417
(dp418
g3
I1
sg4
I185
sg5
I1
sg6
F1623897696.669206
sg7
I2
sg8
I0
sg9
F0.0001
sg10
I1
ssS"{'src_port': 2981, 'ipv4_dst': '10.0.0.41', 'ipv4_src': '16.21.221.242', 'eth_type': 2048, 'dst_port': 0, 'ip_proto': 17}"
p419
(dp420
g3
I1
sg4
I204
sg5
I1
sg6
F1623897642.49864
sg7
I17
sg8
I0
sg9
F0.0001
sg10
I1
ssS"{'src_port': 1663, 'ipv4_dst': '10.0.0.60', 'ipv4_src': '130.15.156.91', 'eth_type': 2048, 'dst_port': 0, 'ip_proto': 17}"
p421
(dp422
g3
I1
sg4
I202
sg5
I1
sg6
F1623897690.683633
sg7
I53
sg8
I202
sg9
F0.0001
sg10
I1
ssS"{'src_port': 1922, 'ipv4_dst': '142.250.38.206', 'ipv4_src': '10.0.0.51', 'eth_type': 2048, 'dst_port': 0, 'ip_proto': 17}"
p423
(dp424
g3
I0
sg4
I0
sg5
I1
sg6
F1623897663.099049
sg7
I6
sg8
I0
sg9
F0.0001
sg10
I1
ssS"{'src_port': 2981, 'ipv4_dst': '10.0.0.60', 'ipv4_src': '163.42.90.42', 'eth_type': 2048, 'dst_port': 0, 'ip_proto': 17}"
p425
(dp426
g3
I1
sg4
I225
sg5
I1
sg6
F1623897642.49864
sg7
I17
sg8
I0
sg9
F0.0001
sg10
I1
ssS"{'src_port': 1922, 'ipv4_dst': '10.0.0.60', 'ipv4_src': '185.197.195.134', 'eth_type': 2048, 'dst_port': 0, 'ip_proto': 17}"
p427
(dp428
g3
I1
sg4
I225
sg5
I1
sg6
F1623897663.016797
sg7
I27
sg8
I0
sg9
F0.0001
sg10
I1
ssS"{'src_port': 1922, 'ipv4_dst': '10.0.0.51', 'ipv4_src': '240.206.139.182', 'eth_type': 2048, 'dst_port': 0, 'ip_proto': 17}"
p429
(dp430
g3
I1
sg4
I229
sg5
I1
sg6
F1623897662.756272
sg7
I54
sg8
I229
sg9
F0.0001
sg10
I1
ssS"{'src_port': 2800, 'ipv4_dst': '84.6.198.218', 'ipv4_src': '10.0.0.41', 'eth_type': 2048, 'dst_port': 0, 'ip_proto': 17}"
p431
(dp432
g3
I0
sg4
I0
sg5
I1
sg6
F1623897684.44511
sg7
I36
sg8
I0
sg9
F0.0001
sg10
I1
ssS"{'src_port': 1305, 'ipv4_dst': '151.58.77.144', 'ipv4_src': '10.0.0.60', 'eth_type': 2048, 'dst_port': 0, 'ip_proto': 17}"
p433
(dp434
g3
I0
sg4
I0
sg5
I1
sg6
F1623897697.539215
sg7
I14
sg8
I0
sg9
F0.0001
sg10
I1
ssS"{'src_port': 1759, 'ipv4_dst': '10.0.0.41', 'ipv4_src': '206.173.90.191', 'eth_type': 2048, 'dst_port': 0, 'ip_proto': 17}"
p435
(dp436
g3
I0
sg4
I0
sg5
I1
sg6
F1623897694.03835
sg7
I25
sg8
I0
sg9
F0.0001
sg10
I1
ssS"{'src_port': 2229, 'ipv4_dst': '10.0.0.60', 'ipv4_src': '127.113.35.140', 'eth_type': 2048, 'dst_port': 0, 'ip_proto': 17}"
p437
(dp438
g3
I1
sg4
I225
sg5
I1
sg6
F1623897695.556481
sg7
I57
sg8
I225
sg9
F0.0001
sg10
I1
ssS"{'src_port': 1663, 'ipv4_dst': '10.0.0.41', 'ipv4_src': '160.206.104.205', 'eth_type': 2048, 'dst_port': 0, 'ip_proto': 17}"
p439
(dp440
g3
I1
sg4
I171
sg5
I1
sg6
F1623897690.786735
sg7
I46
sg8
I171
sg9
F0.0001
sg10
I1
ssS"{'src_port': 1204, 'ipv4_dst': '10.0.0.51', 'ipv4_src': '126.27.27.170', 'eth_type': 2048, 'dst_port': 0, 'ip_proto': 17}"
p441
(dp442
g3
I0
sg4
I0
sg5
I1
sg6
F1623897673.571044
sg7
I30
sg8
I0
sg9
F0.0001
sg10
I1
ssS"{'src_port': 1305, 'ipv4_dst': '10.0.0.60', 'ipv4_src': '255.19.42.154', 'eth_type': 2048, 'dst_port': 0, 'ip_proto': 17}"
p443
(dp444
g3
I1
sg4
I199
sg5
I1
sg6
F1623897697.338809
sg7
I36
sg8
I199
sg9
F0.0001
sg10
I1
ssS"{'src_port': 1204, 'ipv4_dst': '83.119.221.132', 'ipv4_src': '10.0.0.41', 'eth_type': 2048, 'dst_port': 0, 'ip_proto': 17}"
p445
(dp446
g3
I0
sg4
I0
sg5
I1
sg6
F1623897671.163775
sg7
I46
sg8
I0
sg9
F0.0001
sg10
I1
ssS"{'src_port': 1391, 'ipv4_dst': '102.15.16.225', 'ipv4_src': '10.0.0.41', 'eth_type': 2048, 'dst_port': 0, 'ip_proto': 17}"
p447
(dp448
g3
I0
sg4
I0
sg5
I1
sg6
F1623897652.328311
sg7
I45
sg8
I0
sg9
F0.0001
sg10
I1
ssS"{'src_port': 1663, 'ipv4_dst': '10.0.0.41', 'ipv4_src': '175.134.225.38', 'eth_type': 2048, 'dst_port': 0, 'ip_proto': 17}"
p449
(dp450
g3
I1
sg4
I171
sg5
I1
sg6
F1623897690.683633
sg7
I57
sg8
I171
sg9
F0.0001
sg10
I1
ssS"{'src_port': 1204, 'ipv4_dst': '53.142.26.250', 'ipv4_src': '10.0.0.60', 'eth_type': 2048, 'dst_port': 0, 'ip_proto': 17}"
p451
(dp452
g3
I0
sg4
I0
sg5
I1
sg6
F1623897673.655305
sg7
I26
sg8
I0
sg9
F0.0001
sg10
I1
ssS"{'src_port': 2800, 'ipv4_dst': '10.0.0.51', 'ipv4_src': '11.244.34.195', 'eth_type': 2048, 'dst_port': 0, 'ip_proto': 17}"
p453
(dp454
g3
I1
sg4
I172
sg5
I1
sg6
F1623897664.446606
sg7
I16
sg8
I172
sg9
F0.0001
sg10
I1
ssS"{'src_port': 1305, 'ipv4_dst': '252.150.145.45', 'ipv4_src': '10.0.0.60', 'eth_type': 2048, 'dst_port': 0, 'ip_proto': 17}"
p455
(dp456
g3
I0
sg4
I0
sg5
I1
sg6
F1623897697.73601
sg7
I1
sg8
I0
sg9
F0.0001
sg10
I1
ssS"{'src_port': 2229, 'ipv4_dst': '79.253.166.156', 'ipv4_src': '10.0.0.41', 'eth_type': 2048, 'dst_port': 0, 'ip_proto': 17}"
p457
(dp458
g3
I0
sg4
I0
sg5
I1
sg6
F1623897695.362042
sg7
I78
sg8
I0
sg9
F0.0001
sg10
I1
ssS"{'src_port': 1731, 'ipv4_dst': '210.224.123.241', 'ipv4_src': '10.0.0.60', 'eth_type': 2048, 'dst_port': 0, 'ip_proto': 17}"
p459
(dp460
g3
I0
sg4
I0
sg5
I1
sg6
F1623897674.437772
sg7
I16
sg8
I0
sg9
F0.0001
sg10
I1
ssS"{'src_port': 1731, 'ipv4_dst': '135.109.109.212', 'ipv4_src': '10.0.0.41', 'eth_type': 2048, 'dst_port': 0, 'ip_proto': 17}"
p461
(dp462
g3
I0
sg4
I0
sg5
I1
sg6
F1623897674.988997
sg7
I4
sg8
I0
sg9
F0.0001
sg10
I1
ssS"{'src_port': 1204, 'ipv4_dst': '63.133.110.139', 'ipv4_src': '10.0.0.41', 'eth_type': 2048, 'dst_port': 0, 'ip_proto': 17}"
p463
(dp464
g3
I0
sg4
I0
sg5
I1
sg6
F1623897673.392483
sg7
I68
sg8
I0
sg9
F0.0001
sg10
I1
ssS"{'src_port': 1204, 'ipv4_dst': '10.0.0.51', 'ipv4_src': '91.110.135.226', 'eth_type': 2048, 'dst_port': 0, 'ip_proto': 17}"
p465
(dp466
g3
I0
sg4
I0
sg5
I1
sg6
F1623897673.571044
sg7
I26
sg8
I0
sg9
F0.0001
sg10
I1
ssS"{'src_port': 1418, 'ipv4_dst': '10.0.0.60', 'ipv4_src': '217.179.85.227', 'eth_type': 2048, 'dst_port': 0, 'ip_proto': 17}"
p467
(dp468
g3
I1
sg4
I171
sg5
I1
sg6
F1623897687.256926
sg7
I3
sg8
I0
sg9
F0.0001
sg10
I1
ssS"{'src_port': 2800, 'ipv4_dst': '111.109.111.249', 'ipv4_src': '10.0.0.41', 'eth_type': 2048, 'dst_port': 0, 'ip_proto': 17}"
p469
(dp470
g3
I0
sg4
I0
sg5
I1
sg6
F1623897684.533823
sg7
I14
sg8
I0
sg9
F0.0001
sg10
I1
ssS"{'src_port': 2981, 'ipv4_dst': '239.72.113.24', 'ipv4_src': '10.0.0.51', 'eth_type': 2048, 'dst_port': 0, 'ip_proto': 17}"
p471
(dp472
g3
I0
sg4
I0
sg5
I1
sg6
F1623897642.432558
sg7
I33
sg8
I0
sg9
F0.0001
sg10
I1
ssS"{'src_port': 1663, 'ipv4_dst': '21.158.59.80', 'ipv4_src': '10.0.0.41', 'eth_type': 2048, 'dst_port': 0, 'ip_proto': 17}"
p473
(dp474
g3
I0
sg4
I0
sg5
I1
sg6
F1623897690.886827
sg7
I35
sg8
I0
sg9
F0.0001
sg10
I1
ssS"{'src_port': 1418, 'ipv4_dst': '10.0.0.41', 'ipv4_src': '125.58.18.164', 'eth_type': 2048, 'dst_port': 0, 'ip_proto': 17}"
p475
(dp476
g3
I1
sg4
I213
sg5
I1
sg6
F1623897686.881477
sg7
I79
sg8
I0
sg9
F0.0001
sg10
I1
ssS"{'src_port': 1731, 'ipv4_dst': '10.0.0.41', 'ipv4_src': '109.179.218.101', 'eth_type': 2048, 'dst_port': 0, 'ip_proto': 17}"
p477
(dp478
g3
I1
sg4
I171
sg5
I1
sg6
F1623897674.818121
sg7
I26
sg8
I0
sg9
F0.0001
sg10
I1
ssS"{'src_port': 2800, 'ipv4_dst': '10.0.0.51', 'ipv4_src': '93.94.153.131', 'eth_type': 2048, 'dst_port': 0, 'ip_proto': 17}"
p479
(dp480
g3
I1
sg4
I188
sg5
I1
sg6
F1623897693.364471
sg7
I57
sg8
I0
sg9
F0.0001
sg10
I1
ssS"{'src_port': 2229, 'ipv4_dst': '76.226.55.64', 'ipv4_src': '10.0.0.60', 'eth_type': 2048, 'dst_port': 0, 'ip_proto': 17}"
p481
(dp482
g3
I0
sg4
I0
sg5
I1
sg6
F1623897696.669206
sg7
I2
sg8
I0
sg9
F0.0001
sg10
I1
ssS"{'src_port': 1922, 'ipv4_dst': '143.165.170.10', 'ipv4_src': '10.0.0.41', 'eth_type': 2048, 'dst_port': 0, 'ip_proto': 17}"
p483
(dp484
g3
I0
sg4
I0
sg5
I1
sg6
F1623897663.099049
sg7
I1
sg8
I0
sg9
F0.0001
sg10
I1
ssS"{'src_port': 1629, 'ipv4_dst': '10.0.0.41', 'ipv4_src': '118.62.143.165', 'eth_type': 2048, 'dst_port': 0, 'ip_proto': 17}"
p485
(dp486
g3
I0
sg4
I0
sg5
I1
sg6
F1623897685.346041
sg7
I14
sg8
I0
sg9
F0.0001
sg10
I1
ssS"{'src_port': 2981, 'ipv4_dst': '10.0.0.41', 'ipv4_src': '227.161.247.67', 'eth_type': 2048, 'dst_port': 0, 'ip_proto': 17}"
p487
(dp488
g3
I1
sg4
I171
sg5
I1
sg6
F1623897642.56458
sg7
I10
sg8
I0
sg9
F0.0001
sg10
I1
ssS"{'src_port': 1418, 'ipv4_dst': '10.0.0.41', 'ipv4_src': '133.101.53.90', 'eth_type': 2048, 'dst_port': 0, 'ip_proto': 17}"
p489
(dp490
g3
I1
sg4
I171
sg5
I1
sg6
F1623897686.385761
sg7
I52
sg8
I0
sg9
F0.0001
sg10
I1
ssS"{'src_port': 2981, 'ipv4_dst': '10.0.0.60', 'ipv4_src': '48.160.17.181', 'eth_type': 2048, 'dst_port': 0, 'ip_proto': 17}"
p491
(dp492
g3
I1
sg4
I202
sg5
I1
sg6
F1623897642.235244
sg7
I6
sg8
I0
sg9
F0.0001
sg10
I1
ssS"{'src_port': 2272, 'ipv4_dst': '10.0.0.41', 'ipv4_src': '5.83.117.236', 'eth_type': 2048, 'dst_port': 0, 'ip_proto': 17}"
p493
(dp494
g3
I1
sg4
I213
sg5
I1
sg6
F1623897610.732317
sg7
I9
sg8
I0
sg9
F0.0001
sg10
I1
ssS"{'src_port': 2229, 'ipv4_dst': '10.0.0.60', 'ipv4_src': '210.96.219.147', 'eth_type': 2048, 'dst_port': 0, 'ip_proto': 17}"
p495
(dp496
g3
I0
sg4
I0
sg5
I1
sg6
F1623897696.374242
sg7
I46
sg8
I195
sg9
F0.0001
sg10
I1
ssS"{'src_port': 1391, 'ipv4_dst': '10.0.0.51', 'ipv4_src': '133.219.255.241', 'eth_type': 2048, 'dst_port': 0, 'ip_proto': 17}"
p497
(dp498
g3
I1
sg4
I214
sg5
I1
sg6
F1623897652.752644
sg7
I6
sg8
I214
sg9
F0.0001
sg10
I1
ssS"{'src_port': 2800, 'ipv4_dst': '10.0.0.41', 'ipv4_src': '139.183.4.3', 'eth_type': 2048, 'dst_port': 0, 'ip_proto': 17}"
p499
(dp500
g3
I1
sg4
I228
sg5
I1
sg6
F1623897684.247246
sg7
I75
sg8
I0
sg9
F0.0001
sg10
I1
ssS"{'src_port': 1884, 'ipv4_dst': '10.0.0.51', 'ipv4_src': '252.129.117.62', 'eth_type': 2048, 'dst_port': 0, 'ip_proto': 17}"
p501
(dp502
g3
I0
sg4
I0
sg5
I1
sg6
F1623897693.77308
sg7
I83
sg8
I0
sg9
F0.0001
sg10
I1
ssS"{'src_port': 2800, 'ipv4_dst': '219.101.229.206', 'ipv4_src': '10.0.0.41', 'eth_type': 2048, 'dst_port': 0, 'ip_proto': 17}"
p503
(dp504
g3
I0
sg4
I0
sg5
I1
sg6
F1623897693.472911
sg7
I54
sg8
I0
sg9
F0.0001
sg10
I1
ssS"{'src_port': 2767, 'ipv4_dst': '37.100.12.24', 'ipv4_src': '10.0.0.51', 'eth_type': 2048, 'dst_port': 0, 'ip_proto': 17}"
p505
(dp506
g3
I0
sg4
I0
sg5
I1
sg6
F1623897632.321657
sg7
I7
sg8
I0
sg9
F0.0001
sg10
I1
ssS"{'src_port': 1305, 'ipv4_dst': '10.0.0.41', 'ipv4_src': '214.38.143.159', 'eth_type': 2048, 'dst_port': 0, 'ip_proto': 17}"
p507
(dp508
g3
I1
sg4
I177
sg5
I1
sg6
F1623897697.439275
sg7
I33
sg8
I177
sg9
F0.0001
sg10
I1
ssS"{'src_port': 1305, 'ipv4_dst': '111.233.240.244', 'ipv4_src': '10.0.0.41', 'eth_type': 2048, 'dst_port': 0, 'ip_proto': 17}"
p509
(dp510
g3
I0
sg4
I0
sg5
I1
sg6
F1623897697.637028
sg7
I21
sg8
I0
sg9
F0.0001
sg10
I1
ssS"{'src_port': 2767, 'ipv4_dst': '10.0.0.51', 'ipv4_src': '89.207.177.236', 'eth_type': 2048, 'dst_port': 0, 'ip_proto': 17}"
p511
(dp512
g3
I1
sg4
I229
sg5
I1
sg6
F1623897632.265582
sg7
I27
sg8
I0
sg9
F0.0001
sg10
I1
ssS"{'src_port': 1922, 'ipv4_dst': '171.242.107.29', 'ipv4_src': '10.0.0.41', 'eth_type': 2048, 'dst_port': 0, 'ip_proto': 17}"
p513
(dp514
g3
I0
sg4
I0
sg5
I1
sg6
F1623897663.016797
sg7
I31
sg8
I0
sg9
F0.0001
sg10
I1
ssS"{'src_port': 1204, 'ipv4_dst': '255.122.48.168', 'ipv4_src': '10.0.0.51', 'eth_type': 2048, 'dst_port': 0, 'ip_proto': 17}"
p515
(dp516
g3
I0
sg4
I0
sg5
I1
sg6
F1623897671.428518
sg7
I1
sg8
I0
sg9
F0.0001
sg10
I1
ssS"{'src_port': 1663, 'ipv4_dst': '223.10.150.248', 'ipv4_src': '10.0.0.51', 'eth_type': 2048, 'dst_port': 0, 'ip_proto': 17}"
p517
(dp518
g3
I0
sg4
I0
sg5
I1
sg6
F1623897690.786735
sg7
I36
sg8
I0
sg9
F0.0001
sg10
I1
ssS"{'src_port': 1922, 'ipv4_dst': '10.0.0.41', 'ipv4_src': '11.237.146.51', 'eth_type': 2048, 'dst_port': 0, 'ip_proto': 17}"
p519
(dp520
g3
I1
sg4
I228
sg5
I1
sg6
F1623897663.016797
sg7
I48
sg8
I228
sg9
F0.0001
sg10
I1
ssS"{'src_port': 1305, 'ipv4_dst': '10.0.0.41', 'ipv4_src': '207.182.149.172', 'eth_type': 2048, 'dst_port': 0, 'ip_proto': 17}"
p521
(dp522
g3
I1
sg4
I168
sg5
I1
sg6
F1623897697.637028
sg7
I2
sg8
I168
sg9
F0.0001
sg10
I1
ssS"{'src_port': 1204, 'ipv4_dst': '10.0.0.60', 'ipv4_src': '1.207.45.117', 'eth_type': 2048, 'dst_port': 0, 'ip_proto': 17}"
p523
(dp524
g3
I0
sg4
I0
sg5
I1
sg6
F1623897671.163775
sg7
I37
sg8
I0
sg9
F0.0001
sg10
I1
ssS"{'src_port': 1629, 'ipv4_dst': '10.0.0.60', 'ipv4_src': '149.200.205.232', 'eth_type': 2048, 'dst_port': 0, 'ip_proto': 17}"
p525
(dp526
g3
I1
sg4
I174
sg5
I1
sg6
F1623897685.70918
sg7
I22
sg8
I174
sg9
F0.0001
sg10
I1
ssS"{'src_port': 2229, 'ipv4_dst': '10.0.0.60', 'ipv4_src': '110.125.212.44', 'eth_type': 2048, 'dst_port': 0, 'ip_proto': 17}"
p527
(dp528
g3
I1
sg4
I191
sg5
I1
sg6
F1623897695.867852
sg7
I22
sg8
I191
sg9
F0.0001
sg10
I1
ssS"{'src_port': 2800, 'ipv4_dst': '197.55.31.92', 'ipv4_src': '10.0.0.60', 'eth_type': 2048, 'dst_port': 0, 'ip_proto': 17}"
p529
(dp530
g3
I0
sg4
I0
sg5
I1
sg6
F1623897664.193522
sg7
I47
sg8
I0
sg9
F0.0001
sg10
I1
ssS"{'src_port': 1305, 'ipv4_dst': '10.0.0.51', 'ipv4_src': '125.134.144.6', 'eth_type': 2048, 'dst_port': 0, 'ip_proto': 17}"
p531
(dp532
g3
I1
sg4
I195
sg5
I1
sg6
F1623897696.925258
sg7
I76
sg8
I195
sg9
F0.0001
sg10
I1
ssS"{'src_port': 2229, 'ipv4_dst': '10.0.0.41', 'ipv4_src': '62.20.232.209', 'eth_type': 2048, 'dst_port': 0, 'ip_proto': 17}"
p533
(dp534
g3
I1
sg4
I204
sg5
I1
sg6
F1623897696.165825
sg7
I63
sg8
I204
sg9
F0.0001
sg10
I1
ssS"{'src_port': 1305, 'ipv4_dst': '10.0.0.51', 'ipv4_src': '99.30.174.74', 'eth_type': 2048, 'dst_port': 0, 'ip_proto': 17}"
p535
(dp536
g3
I1
sg4
I206
sg5
I1
sg6
F1623897697.73601
sg7
I12
sg8
I206
sg9
F0.0001
sg10
I1
ssS"{'src_port': 2229, 'ipv4_dst': '10.0.0.41', 'ipv4_src': '119.88.103.17', 'eth_type': 2048, 'dst_port': 0, 'ip_proto': 17}"
p537
(dp538
g3
I1
sg4
I169
sg5
I1
sg6
F1623897696.374242
sg7
I25
sg8
I169
sg9
F0.0001
sg10
I1
ssS"{'src_port': 1391, 'ipv4_dst': '10.0.0.41', 'ipv4_src': '238.62.115.101', 'eth_type': 2048, 'dst_port': 0, 'ip_proto': 17}"
p539
(dp540
g3
I1
sg4
I204
sg5
I1
sg6
F1623897652.606682
sg7
I25
sg8
I0
sg9
F0.0001
sg10
I1
ssS"{'src_port': 1164, 'ipv4_dst': '233.242.165.130', 'ipv4_src': '10.0.0.41', 'eth_type': 2048, 'dst_port': 0, 'ip_proto': 17}"
p541
(dp542
g3
I0
sg4
I0
sg5
I1
sg6
F1623897610.394178
sg7
I12
sg8
I0
sg9
F0.0001
sg10
I1
ssS"{'src_port': 2800, 'ipv4_dst': '7.4.8.201', 'ipv4_src': '10.0.0.41', 'eth_type': 2048, 'dst_port': 0, 'ip_proto': 17}"
p543
(dp544
g3
I0
sg4
I0
sg5
I1
sg6
F1623897693.672082
sg7
I1
sg8
I0
sg9
F0.0001
sg10
I1
ssS"{'src_port': 2229, 'ipv4_dst': '10.0.0.41', 'ipv4_src': '6.64.26.137', 'eth_type': 2048, 'dst_port': 0, 'ip_proto': 17}"
p545
(dp546
g3
I1
sg4
I206
sg5
I1
sg6
F1623897695.963142
sg7
I10
sg8
I206
sg9
F0.0001
sg10
I1
ssS"{'src_port': 1663, 'ipv4_dst': '10.0.0.51', 'ipv4_src': '230.66.186.171', 'eth_type': 2048, 'dst_port': 0, 'ip_proto': 17}"
p547
(dp548
g3
I1
sg4
I206
sg5
I1
sg6
F1623897691.08698
sg7
I2
sg8
I206
sg9
F0.0001
sg10
I1
ssS"{'src_port': 1731, 'ipv4_dst': '10.0.0.41', 'ipv4_src': '202.179.101.150', 'eth_type': 2048, 'dst_port': 0, 'ip_proto': 17}"
p549
(dp550
g3
I1
sg4
I204
sg5
I1
sg6
F1623897674.646274
sg7
I45
sg8
I0
sg9
F0.0001
sg10
I1
ssS"{'src_port': 1305, 'ipv4_dst': '10.0.0.41', 'ipv4_src': '61.78.63.208', 'eth_type': 2048, 'dst_port': 0, 'ip_proto': 17}"
p551
(dp552
g3
I1
sg4
I213
sg5
I1
sg6
F1623897697.027089
sg7
I92
sg8
I213
sg9
F0.0001
sg10
I1
ssS"{'src_port': 2800, 'ipv4_dst': '3.12.19.63', 'ipv4_src': '10.0.0.41', 'eth_type': 2048, 'dst_port': 0, 'ip_proto': 17}"
p553
(dp554
g3
I0
sg4
I0
sg5
I1
sg6
F1623897693.364471
sg7
I78
sg8
I0
sg9
F0.0001
sg10
I1
ssS"{'src_port': 2767, 'ipv4_dst': '245.23.125.89', 'ipv4_src': '10.0.0.41', 'eth_type': 2048, 'dst_port': 0, 'ip_proto': 17}"
p555
(dp556
g3
I0
sg4
I0
sg5
I1
sg6
F1623897632.321657
sg7
I3
sg8
I0
sg9
F0.0001
sg10
I1
ssS"{'src_port': 2767, 'ipv4_dst': '207.242.97.106', 'ipv4_src': '10.0.0.41', 'eth_type': 2048, 'dst_port': 0, 'ip_proto': 17}"
p557
(dp558
g3
I0
sg4
I0
sg5
I1
sg6
F1623897632.265582
sg7
I17
sg8
I0
sg9
F0.0001
sg10
I1
ssS"{'src_port': 1305, 'ipv4_dst': '202.60.224.3', 'ipv4_src': '10.0.0.60', 'eth_type': 2048, 'dst_port': 0, 'ip_proto': 17}"
p559
(dp560
g3
I0
sg4
I0
sg5
I1
sg6
F1623897697.338809
sg7
I42
sg8
I0
sg9
F0.0001
sg10
I1
ssS"{'src_port': 2229, 'ipv4_dst': '10.0.0.51', 'ipv4_src': '234.81.137.36', 'eth_type': 2048, 'dst_port': 0, 'ip_proto': 17}"
p561
(dp562
g3
I1
sg4
I229
sg5
I1
sg6
F1623897696.669206
sg7
I2
sg8
I0
sg9
F0.0001
sg10
I1
ssS"{'src_port': 2800, 'ipv4_dst': '201.160.126.108', 'ipv4_src': '10.0.0.41', 'eth_type': 2048, 'dst_port': 0, 'ip_proto': 17}"
p563
(dp564
g3
I0
sg4
I0
sg5
I1
sg6
F1623897684.35115
sg7
I57
sg8
I0
sg9
F0.0001
sg10
I1
ssS"{'src_port': 1391, 'ipv4_dst': '202.179.101.150', 'ipv4_src': '10.0.0.41', 'eth_type': 2048, 'dst_port': 0, 'ip_proto': 17}"
p565
(dp566
g3
I0
sg4
I0
sg5
I1
sg6
F1623897652.606682
sg7
I25
sg8
I0
sg9
F0.0001
sg10
I1
ssS"{'src_port': 1305, 'ipv4_dst': '10.0.0.41', 'ipv4_src': '154.198.168.198', 'eth_type': 2048, 'dst_port': 0, 'ip_proto': 17}"
p567
(dp568
g3
I1
sg4
I173
sg5
I1
sg6
F1623897697.439275
sg7
I36
sg8
I173
sg9
F0.0001
sg10
I1
ssS"{'src_port': 2981, 'ipv4_dst': '10.0.0.41', 'ipv4_src': '133.101.53.90', 'eth_type': 2048, 'dst_port': 0, 'ip_proto': 17}"
p569
(dp570
g3
I1
sg4
I171
sg5
I1
sg6
F1623897642.370895
sg7
I12
sg8
I0
sg9
F0.0001
sg10
I1
ssS"{'src_port': 2229, 'ipv4_dst': '238.117.120.163', 'ipv4_src': '10.0.0.60', 'eth_type': 2048, 'dst_port': 0, 'ip_proto': 17}"
p571
(dp572
g3
I0
sg4
I0
sg5
I1
sg6
F1623897696.374242
sg7
I43
sg8
I0
sg9
F0.0001
sg10
I1
ssS"{'src_port': 1922, 'ipv4_dst': '127.113.35.140', 'ipv4_src': '10.0.0.60', 'eth_type': 2048, 'dst_port': 0, 'ip_proto': 17}"
p573
(dp574
g3
I0
sg4
I0
sg5
I1
sg6
F1623897663.016797
sg7
I27
sg8
I0
sg9
F0.0001
sg10
I1
ssS"{'src_port': 1418, 'ipv4_dst': '211.200.45.166', 'ipv4_src': '10.0.0.51', 'eth_type': 2048, 'dst_port': 0, 'ip_proto': 17}"
p575
(dp576
g3
I0
sg4
I0
sg5
I1
sg6
F1623897686.975615
sg7
I58
sg8
I0
sg9
F0.0001
sg10
I1
ssS"{'src_port': 2844, 'ipv4_dst': '10.0.0.60', 'ipv4_src': '188.168.255.69', 'eth_type': 2048, 'dst_port': 0, 'ip_proto': 17}"
p577
(dp578
g3
I0
sg4
I0
sg5
I1
sg6
F1623897696.764549
sg7
I44
sg8
I0
sg9
F0.0001
sg10
I1
ssS"{'src_port': 1663, 'ipv4_dst': '15.112.114.99', 'ipv4_src': '10.0.0.41', 'eth_type': 2048, 'dst_port': 0, 'ip_proto': 17}"
p579
(dp580
g3
I0
sg4
I0
sg5
I1
sg6
F1623897690.988352
sg7
I11
sg8
I0
sg9
F0.0001
sg10
I1
ssS"{'src_port': 2229, 'ipv4_dst': '151.206.69.137', 'ipv4_src': '10.0.0.60', 'eth_type': 2048, 'dst_port': 0, 'ip_proto': 17}"
p581
(dp582
g3
I0
sg4
I0
sg5
I1
sg6
F1623897696.068722
sg7
I81
sg8
I0
sg9
F0.0001
sg10
I1
ssS"{'src_port': 1629, 'ipv4_dst': '10.0.0.60', 'ipv4_src': '37.98.201.226', 'eth_type': 2048, 'dst_port': 0, 'ip_proto': 17}"
p583
(dp584
g3
I1
sg4
I202
sg5
I1
sg6
F1623897685.70918
sg7
I43
sg8
I202
sg9
F0.0001
sg10
I1
ssS"{'src_port': 1922, 'ipv4_dst': '7.132.83.151', 'ipv4_src': '10.0.0.41', 'eth_type': 2048, 'dst_port': 0, 'ip_proto': 17}"
p585
(dp586
g3
I0
sg4
I0
sg5
I1
sg6
F1623897663.016797
sg7
I32
sg8
I0
sg9
F0.0001
sg10
I1
ssS"{'src_port': 1391, 'ipv4_dst': '10.0.0.51', 'ipv4_src': '192.166.22.212', 'eth_type': 2048, 'dst_port': 0, 'ip_proto': 17}"
p587
(dp588
g3
I0
sg4
I0
sg5
I1
sg6
F1623897650.718203
sg7
I28
sg8
I0
sg9
F0.0001
sg10
I1
ssS"{'src_port': 2229, 'ipv4_dst': '10.0.0.51', 'ipv4_src': '143.217.137.198', 'eth_type': 2048, 'dst_port': 0, 'ip_proto': 17}"
p589
(dp590
g3
I0
sg4
I0
sg5
I1
sg6
F1623897696.374242
sg7
I42
sg8
I172
sg9
F0.0001
sg10
I1
ssS"{'src_port': 1922, 'ipv4_dst': '183.83.88.79', 'ipv4_src': '10.0.0.51', 'eth_type': 2048, 'dst_port': 0, 'ip_proto': 17}"
p591
(dp592
g3
I0
sg4
I0
sg5
I1
sg6
F1623897662.756272
sg7
I43
sg8
I0
sg9
F0.0001
sg10
I1
ssS"{'src_port': 1731, 'ipv4_dst': '183.93.21.7', 'ipv4_src': '10.0.0.51', 'eth_type': 2048, 'dst_port': 0, 'ip_proto': 17}"
p593
(dp594
g3
I0
sg4
I0
sg5
I1
sg6
F1623897674.903542
sg7
I5
sg8
I0
sg9
F0.0001
sg10
I1
ssS"{'src_port': 1204, 'ipv4_dst': '111.233.240.244', 'ipv4_src': '10.0.0.41', 'eth_type': 2048, 'dst_port': 0, 'ip_proto': 17}"
p595
(dp596
g3
I0
sg4
I0
sg5
I1
sg6
F1623897671.428518
sg7
I1
sg8
I0
sg9
F0.0001
sg10
I1
ssS"{'src_port': 2800, 'ipv4_dst': '117.118.42.249', 'ipv4_src': '10.0.0.41', 'eth_type': 2048, 'dst_port': 0, 'ip_proto': 17}"
p597
(dp598
g3
I0
sg4
I0
sg5
I1
sg6
F1623897684.533823
sg7
I3
sg8
I0
sg9
F0.0001
sg10
I1
ssS"{'src_port': 1922, 'ipv4_dst': '10.0.0.51', 'ipv4_src': '176.19.227.5', 'eth_type': 2048, 'dst_port': 0, 'ip_proto': 17}"
p599
(dp600
g3
I1
sg4
I195
sg5
I1
sg6
F1623897662.756272
sg7
I54
sg8
I195
sg9
F0.0001
sg10
I1
ssS"{'src_port': 1731, 'ipv4_dst': '10.0.0.60', 'ipv4_src': '43.32.207.111', 'eth_type': 2048, 'dst_port': 0, 'ip_proto': 17}"
p601
(dp602
g3
I1
sg4
I225
sg5
I1
sg6
F1623897674.261253
sg7
I43
sg8
I0
sg9
F0.0001
sg10
I1
ssS"{'src_port': 2981, 'ipv4_dst': '82.233.35.163', 'ipv4_src': '10.0.0.60', 'eth_type': 2048, 'dst_port': 0, 'ip_proto': 17}"
p603
(dp604
g3
I0
sg4
I0
sg5
I1
sg6
F1623897642.235244
sg7
I7
sg8
I0
sg9
F0.0001
sg10
I1
ssS"{'src_port': 2981, 'ipv4_dst': '10.0.0.60', 'ipv4_src': '210.182.166.136', 'eth_type': 2048, 'dst_port': 0, 'ip_proto': 17}"
p605
(dp606
g3
I1
sg4
I225
sg5
I1
sg6
F1623897642.49864
sg7
I22
sg8
I0
sg9
F0.0001
sg10
I1
ssS"{'src_port': 1731, 'ipv4_dst': '167.139.77.41', 'ipv4_src': '10.0.0.51', 'eth_type': 2048, 'dst_port': 0, 'ip_proto': 17}"
p607
(dp608
g3
I0
sg4
I0
sg5
I1
sg6
F1623897674.903542
sg7
I5
sg8
I0
sg9
F0.0001
sg10
I1
ssS"{'src_port': 1305, 'ipv4_dst': '210.247.15.137', 'ipv4_src': '10.0.0.51', 'eth_type': 2048, 'dst_port': 0, 'ip_proto': 17}"
p609
(dp610
g3
I0
sg4
I0
sg5
I1
sg6
F1623897697.539215
sg7
I21
sg8
I0
sg9
F0.0001
sg10
I1
ssS"{'src_port': 1418, 'ipv4_dst': '102.15.16.225', 'ipv4_src': '10.0.0.41', 'eth_type': 2048, 'dst_port': 0, 'ip_proto': 17}"
p611
(dp612
g3
I0
sg4
I0
sg5
I1
sg6
F1623897686.881477
sg7
I75
sg8
I0
sg9
F0.0001
sg10
I1
ssS"{'src_port': 0, 'ipv4_dst': '139.161.165.9', 'ipv4_src': '10.0.0.41', 'eth_type': 2048, 'dst_port': 0, 'ip_proto': 0}"
p613
(dp614
g3
I0
sg4
I0
sg5
I1
sg6
F1623897600.031204
sg7
I3
sg8
I0
sg9
F0.0001
sg10
I1
ssS"{'src_port': 1663, 'ipv4_dst': '10.0.0.41', 'ipv4_src': '143.39.172.147', 'eth_type': 2048, 'dst_port': 0, 'ip_proto': 17}"
p615
(dp616
g3
I1
sg4
I204
sg5
I1
sg6
F1623897690.582431
sg7
I68
sg8
I204
sg9
F0.0001
sg10
I1
ssS"{'src_port': 1731, 'ipv4_dst': '10.0.0.51', 'ipv4_src': '155.16.138.67', 'eth_type': 2048, 'dst_port': 0, 'ip_proto': 17}"
p617
(dp618
g3
I1
sg4
I195
sg5
I1
sg6
F1623897674.261253
sg7
I55
sg8
I0
sg9
F0.0001
sg10
I1
ssS"{'src_port': 2229, 'ipv4_dst': '231.189.192.135', 'ipv4_src': '10.0.0.60', 'eth_type': 2048, 'dst_port': 0, 'ip_proto': 17}"
p619
(dp620
g3
I0
sg4
I0
sg5
I1
sg6
F1623897696.068722
sg7
I89
sg8
I0
sg9
F0.0001
sg10
I1
ssS"{'src_port': 1418, 'ipv4_dst': '8.243.13.124', 'ipv4_src': '10.0.0.51', 'eth_type': 2048, 'dst_port': 0, 'ip_proto': 17}"
p621
(dp622
g3
I0
sg4
I0
sg5
I1
sg6
F1623897687.163614
sg7
I35
sg8
I0
sg9
F0.0001
sg10
I1
ssS"{'src_port': 1418, 'ipv4_dst': '127.136.62.199', 'ipv4_src': '10.0.0.60', 'eth_type': 2048, 'dst_port': 0, 'ip_proto': 17}"
p623
(dp624
g3
I0
sg4
I0
sg5
I1
sg6
F1623897686.667995
sg7
I26
sg8
I0
sg9
F0.0001
sg10
I1
ssS"{'src_port': 1391, 'ipv4_dst': '207.242.97.106', 'ipv4_src': '10.0.0.41', 'eth_type': 2048, 'dst_port': 0, 'ip_proto': 17}"
p625
(dp626
g3
I0
sg4
I0
sg5
I1
sg6
F1623897652.606682
sg7
I37
sg8
I0
sg9
F0.0001
sg10
I1
ssS"{'src_port': 1731, 'ipv4_dst': '10.0.0.41', 'ipv4_src': '101.28.2.38', 'eth_type': 2048, 'dst_port': 0, 'ip_proto': 17}"
p627
(dp628
g3
I1
sg4
I206
sg5
I1
sg6
F1623897674.646274
sg7
I48
sg8
I0
sg9
F0.0001
sg10
I1
ssS"{'src_port': 1391, 'ipv4_dst': '244.71.38.213', 'ipv4_src': '10.0.0.41', 'eth_type': 2048, 'dst_port': 0, 'ip_proto': 17}"
p629
(dp630
g3
I0
sg4
I0
sg5
I1
sg6
F1623897652.679689
sg7
I23
sg8
I0
sg9
F0.0001
sg10
I1
ssS"{'src_port': 1391, 'ipv4_dst': '10.0.0.51', 'ipv4_src': '223.69.240.80', 'eth_type': 2048, 'dst_port': 0, 'ip_proto': 17}"
p631
(dp632
g3
I0
sg4
I0
sg5
I1
sg6
F1623897650.718203
sg7
I24
sg8
I0
sg9
F0.0001
sg10
I1
ssS"{'src_port': 2229, 'ipv4_dst': '186.11.221.182', 'ipv4_src': '10.0.0.51', 'eth_type': 2048, 'dst_port': 0, 'ip_proto': 17}"
p633
(dp634
g3
I0
sg4
I0
sg5
I1
sg6
F1623897696.26296
sg7
I60
sg8
I0
sg9
F0.0001
sg10
I1
ssS"{'src_port': 2800, 'ipv4_dst': '59.45.9.86', 'ipv4_src': '10.0.0.41', 'eth_type': 2048, 'dst_port': 0, 'ip_proto': 17}"
p635
(dp636
g3
I0
sg4
I0
sg5
I1
sg6
F1623897693.364471
sg7
I87
sg8
I0
sg9
F0.0001
sg10
I1
ssS"{'src_port': 2272, 'ipv4_dst': '251.98.181.181', 'ipv4_src': '10.0.0.60', 'eth_type': 2048, 'dst_port': 0, 'ip_proto': 17}"
p637
(dp638
g3
I0
sg4
I0
sg5
I1
sg6
F1623897610.744147
sg7
I4
sg8
I0
sg9
F0.0001
sg10
I1
ssS"{'src_port': 2800, 'ipv4_dst': '72.229.146.175', 'ipv4_src': '10.0.0.41', 'eth_type': 2048, 'dst_port': 0, 'ip_proto': 17}"
p639
(dp640
g3
I0
sg4
I0
sg5
I1
sg6
F1623897684.533823
sg7
I13
sg8
I0
sg9
F0.0001
sg10
I1
ssS"{'src_port': 2767, 'ipv4_dst': '14.72.67.122', 'ipv4_src': '10.0.0.41', 'eth_type': 2048, 'dst_port': 0, 'ip_proto': 17}"
p641
(dp642
g3
I0
sg4
I0
sg5
I1
sg6
F1623897632.22476
sg7
I26
sg8
I0
sg9
F0.0001
sg10
I1
ssS"{'src_port': 2400, 'ipv4_dst': '10.0.0.41', 'ipv4_src': '80.6.103.79', 'eth_type': 2048, 'dst_port': 0, 'ip_proto': 17}"
p643
(dp644
g3
I0
sg4
I0
sg5
I1
sg6
F1623897693.971507
sg7
I56
sg8
I0
sg9
F0.0001
sg10
I1
ssS"{'src_port': 2800, 'ipv4_dst': '10.0.0.41', 'ipv4_src': '107.201.157.217', 'eth_type': 2048, 'dst_port': 0, 'ip_proto': 17}"
p645
(dp646
g3
I1
sg4
I213
sg5
I1
sg6
F1623897684.247246
sg7
I83
sg8
I0
sg9
F0.0001
sg10
I1
ssS"{'src_port': 1731, 'ipv4_dst': '10.0.0.41', 'ipv4_src': '143.171.206.189', 'eth_type': 2048, 'dst_port': 0, 'ip_proto': 17}"
p647
(dp648
g3
I1
sg4
I173
sg5
I1
sg6
F1623897674.818121
sg7
I20
sg8
I0
sg9
F0.0001
sg10
I1
ssS"{'src_port': 2218, 'ipv4_dst': '10.0.0.41', 'ipv4_src': '81.241.4.87', 'eth_type': 2048, 'dst_port': 0, 'ip_proto': 17}"
p649
(dp650
g3
I0
sg4
I0
sg5
I1
sg6
F1623897693.77308
sg7
I85
sg8
I0
sg9
F0.0001
sg10
I1
ssS"{'src_port': 1309, 'ipv4_dst': '10.0.0.41', 'ipv4_src': '41.49.174.56', 'eth_type': 2048, 'dst_port': 0, 'ip_proto': 17}"
p651
(dp652
g3
I0
sg4
I0
sg5
I1
sg6
F1623897693.905895
sg7
I67
sg8
I0
sg9
F0.0001
sg10
I1
ssS"{'src_port': 1629, 'ipv4_dst': '10.0.0.41', 'ipv4_src': '65.82.188.233', 'eth_type': 2048, 'dst_port': 0, 'ip_proto': 17}"
p653
(dp654
g3
I0
sg4
I0
sg5
I1
sg6
F1623897684.914857
sg7
I82
sg8
I0
sg9
F0.0001
sg10
I1
ssS"{'src_port': 1922, 'ipv4_dst': '149.200.205.232', 'ipv4_src': '10.0.0.60', 'eth_type': 2048, 'dst_port': 0, 'ip_proto': 17}"
p655
(dp656
g3
I0
sg4
I0
sg5
I1
sg6
F1623897663.099049
sg7
I2
sg8
I0
sg9
F0.0001
sg10
I1
ssS"{'src_port': 2272, 'ipv4_dst': '10.0.0.51', 'ipv4_src': '167.142.134.163', 'eth_type': 2048, 'dst_port': 0, 'ip_proto': 17}"
p657
(dp658
g3
I1
sg4
I195
sg5
I1
sg6
F1623897610.744147
sg7
I4
sg8
I0
sg9
F0.0001
sg10
I1
ssS"{'src_port': 1731, 'ipv4_dst': '10.0.0.60', 'ipv4_src': '124.81.248.90', 'eth_type': 2048, 'dst_port': 0, 'ip_proto': 17}"
p659
(dp660
g3
I1
sg4
I191
sg5
I1
sg6
F1623897674.988997
sg7
I2
sg8
I0
sg9
F0.0001
sg10
I1
ssS"{'src_port': 1204, 'ipv4_dst': '10.0.0.51', 'ipv4_src': '14.204.5.70', 'eth_type': 2048, 'dst_port': 0, 'ip_proto': 17}"
p661
(dp662
g3
I1
sg4
I195
sg5
I1
sg6
F1623897673.484368
sg7
I55
sg8
I195
sg9
F0.0001
sg10
I1
ssS"{'src_port': 2440, 'ipv4_dst': '10.0.0.51', 'ipv4_src': '17.74.204.54', 'eth_type': 2048, 'dst_port': 0, 'ip_proto': 17}"
p663
(dp664
g3
I0
sg4
I0
sg5
I1
sg6
F1623897694.03835
sg7
I25
sg8
I0
sg9
F0.0001
sg10
I1
ssS"{'src_port': 2229, 'ipv4_dst': '10.0.0.41', 'ipv4_src': '152.36.167.91', 'eth_type': 2048, 'dst_port': 0, 'ip_proto': 17}"
p665
(dp666
g3
I1
sg4
I206
sg5
I1
sg6
F1623897696.068722
sg7
I76
sg8
I206
sg9
F0.0001
sg10
I1
ssS"{'src_port': 1305, 'ipv4_dst': '74.113.249.16', 'ipv4_src': '10.0.0.41', 'eth_type': 2048, 'dst_port': 0, 'ip_proto': 17}"
p667
(dp668
g3
I0
sg4
I0
sg5
I1
sg6
F1623897697.439275
sg7
I32
sg8
I0
sg9
F0.0001
sg10
I1
ssS"{'src_port': 1305, 'ipv4_dst': '10.0.0.41', 'ipv4_src': '53.149.209.233', 'eth_type': 2048, 'dst_port': 0, 'ip_proto': 17}"
p669
(dp670
g3
I1
sg4
I173
sg5
I1
sg6
F1623897697.439275
sg7
I36
sg8
I173
sg9
F0.0001
sg10
I1
ssS"{'src_port': 1418, 'ipv4_dst': '159.200.234.3', 'ipv4_src': '10.0.0.60', 'eth_type': 2048, 'dst_port': 0, 'ip_proto': 17}"
p671
(dp672
g3
I0
sg4
I0
sg5
I1
sg6
F1623897687.163614
sg7
I32
sg8
I0
sg9
F0.0001
sg10
I1
ssS"{'src_port': 1418, 'ipv4_dst': '197.165.228.212', 'ipv4_src': '10.0.0.41', 'eth_type': 2048, 'dst_port': 0, 'ip_proto': 17}"
p673
(dp674
g3
I0
sg4
I0
sg5
I1
sg6
F1623897686.881477
sg7
I71
sg8
I0
sg9
F0.0001
sg10
I1
ssS"{'src_port': 1204, 'ipv4_dst': '23.149.49.121', 'ipv4_src': '10.0.0.41', 'eth_type': 2048, 'dst_port': 0, 'ip_proto': 17}"
p675
(dp676
g3
I0
sg4
I0
sg5
I1
sg6
F1623897673.571044
sg7
I40
sg8
I0
sg9
F0.0001
sg10
I1
ssS"{'src_port': 1922, 'ipv4_dst': '199.236.112.53', 'ipv4_src': '10.0.0.51', 'eth_type': 2048, 'dst_port': 0, 'ip_proto': 17}"
p677
(dp678
g3
I0
sg4
I0
sg5
I1
sg6
F1623897662.756272
sg7
I54
sg8
I0
sg9
F0.0001
sg10
I1
ssS"{'src_port': 1305, 'ipv4_dst': '75.38.9.202', 'ipv4_src': '10.0.0.41', 'eth_type': 2048, 'dst_port': 0, 'ip_proto': 17}"
p679
(dp680
g3
I0
sg4
I0
sg5
I1
sg6
F1623897697.637028
sg7
I2
sg8
I0
sg9
F0.0001
sg10
I1
ssS"{'src_port': 1949, 'ipv4_dst': '10.0.0.51', 'ipv4_src': '37.60.212.15', 'eth_type': 2048, 'dst_port': 0, 'ip_proto': 17}"
p681
(dp682
g3
I0
sg4
I0
sg5
I1
sg6
F1623897693.905895
sg7
I61
sg8
I0
sg9
F0.0001
sg10
I1
ssS"{'src_port': 1204, 'ipv4_dst': '103.244.120.217', 'ipv4_src': '10.0.0.60', 'eth_type': 2048, 'dst_port': 0, 'ip_proto': 17}"
p683
(dp684
g3
I0
sg4
I0
sg5
I1
sg6
F1623897673.571044
sg7
I26
sg8
I0
sg9
F0.0001
sg10
I1
ssS"{'src_port': 1629, 'ipv4_dst': '221.227.55.15', 'ipv4_src': '10.0.0.41', 'eth_type': 2048, 'dst_port': 0, 'ip_proto': 17}"
p685
(dp686
g3
I0
sg4
I0
sg5
I1
sg6
F1623897685.165283
sg7
I53
sg8
I0
sg9
F0.0001
sg10
I1
ssS"{'src_port': 1629, 'ipv4_dst': '84.55.151.179', 'ipv4_src': '10.0.0.60', 'eth_type': 2048, 'dst_port': 0, 'ip_proto': 17}"
p687
(dp688
g3
I0
sg4
I0
sg5
I1
sg6
F1623897685.075406
sg7
I66
sg8
I0
sg9
F0.0001
sg10
I1
ssS"{'src_port': 1305, 'ipv4_dst': '3.148.15.69', 'ipv4_src': '10.0.0.51', 'eth_type': 2048, 'dst_port': 0, 'ip_proto': 17}"
p689
(dp690
g3
I0
sg4
I0
sg5
I1
sg6
F1623897697.134541
sg7
I63
sg8
I0
sg9
F0.0001
sg10
I1
ssS"{'src_port': 2229, 'ipv4_dst': '93.94.153.131', 'ipv4_src': '10.0.0.51', 'eth_type': 2048, 'dst_port': 0, 'ip_proto': 17}"
p691
(dp692
g3
I0
sg4
I0
sg5
I1
sg6
F1623897695.556481
sg7
I57
sg8
I0
sg9
F0.0001
sg10
I1
ssS"{'src_port': 1204, 'ipv4_dst': '10.0.0.41', 'ipv4_src': '137.215.200.255', 'eth_type': 2048, 'dst_port': 0, 'ip_proto': 17}"
p693
(dp694
g3
I0
sg4
I0
sg5
I1
sg6
F1623897671.079406
sg7
I57
sg8
I0
sg9
F0.0001
sg10
I1
ssS"{'src_port': 2229, 'ipv4_dst': '231.207.232.243', 'ipv4_src': '10.0.0.41', 'eth_type': 2048, 'dst_port': 0, 'ip_proto': 17}"
p695
(dp696
g3
I0
sg4
I0
sg5
I1
sg6
F1623897696.669206
sg7
I12
sg8
I0
sg9
F0.0001
sg10
I1
ssS"{'src_port': 2800, 'ipv4_dst': '10.0.0.41', 'ipv4_src': '9.49.229.111', 'eth_type': 2048, 'dst_port': 0, 'ip_proto': 17}"
p697
(dp698
g3
I1
sg4
I204
sg5
I1
sg6
F1623897693.364471
sg7
I71
sg8
I0
sg9
F0.0001
sg10
I1
ssS"{'src_port': 2767, 'ipv4_dst': '27.51.229.150', 'ipv4_src': '10.0.0.41', 'eth_type': 2048, 'dst_port': 0, 'ip_proto': 17}"
p699
(dp700
g3
I0
sg4
I0
sg5
I1
sg6
F1623897632.321657
sg7
I15
sg8
I0
sg9
F0.0001
sg10
I1
ssS"{'src_port': 1545, 'ipv4_dst': '10.0.0.41', 'ipv4_src': '24.199.228.54', 'eth_type': 2048, 'dst_port': 0, 'ip_proto': 17}"
p701
(dp702
g3
I0
sg4
I0
sg5
I1
sg6
F1623897694.03835
sg7
I14
sg8
I0
sg9
F0.0001
sg10
I1
ssS"{'src_port': 1663, 'ipv4_dst': '10.0.0.41', 'ipv4_src': '129.174.29.181', 'eth_type': 2048, 'dst_port': 0, 'ip_proto': 17}"
p703
(dp704
g3
I1
sg4
I204
sg5
I1
sg6
F1623897690.582431
sg7
I70
sg8
I204
sg9
F0.0001
sg10
I1
ssS"{'src_port': 2229, 'ipv4_dst': '16.115.20.44', 'ipv4_src': '10.0.0.41', 'eth_type': 2048, 'dst_port': 0, 'ip_proto': 17}"
p705
(dp706
g3
I0
sg4
I0
sg5
I1
sg6
F1623897694.17528
sg7
I87
sg8
I0
sg9
F0.0001
sg10
I1
ssS"{'src_port': 2800, 'ipv4_dst': '22.111.163.111', 'ipv4_src': '10.0.0.41', 'eth_type': 2048, 'dst_port': 0, 'ip_proto': 17}"
p707
(dp708
g3
I0
sg4
I0
sg5
I1
sg6
F1623897684.35115
sg7
I46
sg8
I0
sg9
F0.0001
sg10
I1
ssS"{'src_port': 1731, 'ipv4_dst': '10.182.55.197', 'ipv4_src': '10.0.0.60', 'eth_type': 2048, 'dst_port': 0, 'ip_proto': 17}"
p709
(dp710
g3
I0
sg4
I0
sg5
I1
sg6
F1623897674.261253
sg7
I53
sg8
I0
sg9
F0.0001
sg10
I1
ssS"{'src_port': 2981, 'ipv4_dst': '22.106.82.4', 'ipv4_src': '10.0.0.51', 'eth_type': 2048, 'dst_port': 0, 'ip_proto': 17}"
p711
(dp712
g3
I0
sg4
I0
sg5
I1
sg6
F1623897642.235244
sg7
I2
sg8
I0
sg9
F0.0001
sg10
I1
ssS"{'src_port': 2981, 'ipv4_dst': '123.130.135.57', 'ipv4_src': '10.0.0.60', 'eth_type': 2048, 'dst_port': 0, 'ip_proto': 17}"
p713
(dp714
g3
I0
sg4
I0
sg5
I1
sg6
F1623897642.49864
sg7
I18
sg8
I0
sg9
F0.0001
sg10
I1
ssS"{'src_port': 1204, 'ipv4_dst': '161.53.147.246', 'ipv4_src': '10.0.0.51', 'eth_type': 2048, 'dst_port': 0, 'ip_proto': 17}"
p715
(dp716
g3
I0
sg4
I0
sg5
I1
sg6
F1623897673.655305
sg7
I25
sg8
I0
sg9
F0.0001
sg10
I1
ssS"{'src_port': 1922, 'ipv4_dst': '23.124.55.50', 'ipv4_src': '10.0.0.41', 'eth_type': 2048, 'dst_port': 0, 'ip_proto': 17}"
p717
(dp718
g3
I0
sg4
I0
sg5
I1
sg6
F1623897661.150655
sg7
I0
sg8
I0
sg9
F0.0001
sg10
I1
ssS"{'src_port': 1731, 'ipv4_dst': '10.0.0.41', 'ipv4_src': '21.98.69.203', 'eth_type': 2048, 'dst_port': 0, 'ip_proto': 17}"
p719
(dp720
g3
I1
sg4
I206
sg5
I1
sg6
F1623897674.646274
sg7
I50
sg8
I0
sg9
F0.0001
sg10
I1
ssS"{'src_port': 2767, 'ipv4_dst': '10.0.0.60', 'ipv4_src': '251.98.181.181', 'eth_type': 2048, 'dst_port': 0, 'ip_proto': 17}"
p721
(dp722
g3
I1
sg4
I231
sg5
I1
sg6
F1623897632.265582
sg7
I24
sg8
I0
sg9
F0.0001
sg10
I1
ssS"{'src_port': 1204, 'ipv4_dst': '57.19.233.191', 'ipv4_src': '10.0.0.41', 'eth_type': 2048, 'dst_port': 0, 'ip_proto': 17}"
p723
(dp724
g3
I0
sg4
I0
sg5
I1
sg6
F1623897673.739689
sg7
I4
sg8
I0
sg9
F0.0001
sg10
I1
ssS"{'src_port': 1204, 'ipv4_dst': '202.193.101.232', 'ipv4_src': '10.0.0.41', 'eth_type': 2048, 'dst_port': 0, 'ip_proto': 17}"
p725
(dp726
g3
I0
sg4
I0
sg5
I1
sg6
F1623897671.163775
sg7
I44
sg8
I0
sg9
F0.0001
sg10
I1
ssS"{'src_port': 2981, 'ipv4_dst': '10.0.0.41', 'ipv4_src': '249.242.94.26', 'eth_type': 2048, 'dst_port': 0, 'ip_proto': 17}"
p727
(dp728
g3
I1
sg4
I206
sg5
I1
sg6
F1623897642.432558
sg7
I26
sg8
I0
sg9
F0.0001
sg10
I1
ssS"{'src_port': 1305, 'ipv4_dst': '50.110.136.234', 'ipv4_src': '10.0.0.60', 'eth_type': 2048, 'dst_port': 0, 'ip_proto': 17}"
p729
(dp730
g3
I0
sg4
I0
sg5
I1
sg6
F1623897697.73601
sg7
I13
sg8
I0
sg9
F0.0001
sg10
I1
ssS"{'src_port': 1418, 'ipv4_dst': '5.171.0.91', 'ipv4_src': '10.0.0.60', 'eth_type': 2048, 'dst_port': 0, 'ip_proto': 17}"
p731
(dp732
g3
I0
sg4
I0
sg5
I1
sg6
F1623897686.667995
sg7
I22
sg8
I0
sg9
F0.0001
sg10
I1
ssS"{'src_port': 1305, 'ipv4_dst': '10.0.0.41', 'ipv4_src': '193.195.96.16', 'eth_type': 2048, 'dst_port': 0, 'ip_proto': 17}"
p733
(dp734
g3
I1
sg4
I169
sg5
I1
sg6
F1623897697.637028
sg7
I24
sg8
I169
sg9
F0.0001
sg10
I1
ssS"{'src_port': 2981, 'ipv4_dst': '221.227.55.15', 'ipv4_src': '10.0.0.41', 'eth_type': 2048, 'dst_port': 0, 'ip_proto': 17}"
p735
(dp736
g3
I0
sg4
I0
sg5
I1
sg6
F1623897642.49864
sg7
I13
sg8
I0
sg9
F0.0001
sg10
I1
ssS"{'src_port': 2229, 'ipv4_dst': '10.0.0.60', 'ipv4_src': '191.17.193.171', 'eth_type': 2048, 'dst_port': 0, 'ip_proto': 17}"
p737
(dp738
g3
I1
sg4
I225
sg5
I1
sg6
F1623897696.165825
sg7
I67
sg8
I0
sg9
F0.0001
sg10
I1
ssS"{'src_port': 1305, 'ipv4_dst': '10.0.0.51', 'ipv4_src': '5.200.143.44', 'eth_type': 2048, 'dst_port': 0, 'ip_proto': 17}"
p739
(dp740
g3
I1
sg4
I204
sg5
I1
sg6
F1623897697.134541
sg7
I63
sg8
I204
sg9
F0.0001
sg10
I1
ssS"{'src_port': 2800, 'ipv4_dst': '10.0.0.41', 'ipv4_src': '35.146.97.232', 'eth_type': 2048, 'dst_port': 0, 'ip_proto': 17}"
p741
(dp742
g3
I1
sg4
I171
sg5
I1
sg6
F1623897693.472911
sg7
I56
sg8
I0
sg9
F0.0001
sg10
I1
ssS"{'src_port': 2229, 'ipv4_dst': '65.142.183.5', 'ipv4_src': '10.0.0.41', 'eth_type': 2048, 'dst_port': 0, 'ip_proto': 17}"
p743
(dp744
g3
I0
sg4
I0
sg5
I1
sg6
F1623897696.374242
sg7
I40
sg8
I0
sg9
F0.0001
sg10
I1
ssS"{'src_port': 2229, 'ipv4_dst': '22.111.163.111', 'ipv4_src': '10.0.0.41', 'eth_type': 2048, 'dst_port': 0, 'ip_proto': 17}"
p745
(dp746
g3
I0
sg4
I0
sg5
I1
sg6
F1623897696.26296
sg7
I56
sg8
I0
sg9
F0.0001
sg10
I1
ssS"{'src_port': 1305, 'ipv4_dst': '10.0.0.41', 'ipv4_src': '26.164.144.148', 'eth_type': 2048, 'dst_port': 0, 'ip_proto': 17}"
p747
(dp748
g3
I1
sg4
I213
sg5
I1
sg6
F1623897697.637028
sg7
I14
sg8
I213
sg9
F0.0001
sg10
I1
ssS"{'src_port': 1305, 'ipv4_dst': '10.0.0.41', 'ipv4_src': '24.1.47.152', 'eth_type': 2048, 'dst_port': 0, 'ip_proto': 17}"
p749
(dp750
g3
I1
sg4
I206
sg5
I1
sg6
F1623897697.027089
sg7
I72
sg8
I206
sg9
F0.0001
sg10
I1
ssS"{'src_port': 1629, 'ipv4_dst': '133.92.247.241', 'ipv4_src': '10.0.0.41', 'eth_type': 2048, 'dst_port': 0, 'ip_proto': 17}"
p751
(dp752
g3
I0
sg4
I0
sg5
I1
sg6
F1623897685.616687
sg7
I69
sg8
I0
sg9
F0.0001
sg10
I1
ssS"{'src_port': 1731, 'ipv4_dst': '178.237.37.106', 'ipv4_src': '10.0.0.41', 'eth_type': 2048, 'dst_port': 0, 'ip_proto': 17}"
p753
(dp754
g3
I0
sg4
I0
sg5
I1
sg6
F1623897674.646274
sg7
I71
sg8
I0
sg9
F0.0001
sg10
I1
ssS"{'src_port': 2229, 'ipv4_dst': '11.23.195.202', 'ipv4_src': '10.0.0.41', 'eth_type': 2048, 'dst_port': 0, 'ip_proto': 17}"
p755
(dp756
g3
I0
sg4
I0
sg5
I1
sg6
F1623897696.374242
sg7
I25
sg8
I0
sg9
F0.0001
sg10
I1
ssS"{'src_port': 2800, 'ipv4_dst': '89.133.202.81', 'ipv4_src': '10.0.0.60', 'eth_type': 2048, 'dst_port': 0, 'ip_proto': 17}"
p757
(dp758
g3
I0
sg4
I0
sg5
I1
sg6
F1623897693.574774
sg7
I22
sg8
I0
sg9
F0.0001
sg10
I1
ssS"{'src_port': 2229, 'ipv4_dst': '10.0.0.41', 'ipv4_src': '209.46.179.115', 'eth_type': 2048, 'dst_port': 0, 'ip_proto': 17}"
p759
(dp760
g3
I1
sg4
I204
sg5
I1
sg6
F1623897695.459731
sg7
I70
sg8
I204
sg9
F0.0001
sg10
I1
ssS"{'src_port': 1731, 'ipv4_dst': '10.0.0.51', 'ipv4_src': '132.169.23.64', 'eth_type': 2048, 'dst_port': 0, 'ip_proto': 17}"
p761
(dp762
g3
I1
sg4
I169
sg5
I1
sg6
F1623897674.261253
sg7
I55
sg8
I0
sg9
F0.0001
sg10
I1
ssS"{'src_port': 1922, 'ipv4_dst': '10.0.0.41', 'ipv4_src': '208.88.91.247', 'eth_type': 2048, 'dst_port': 0, 'ip_proto': 17}"
p763
(dp764
g3
I0
sg4
I0
sg5
I1
sg6
F1623897660.832063
sg7
I54
sg8
I0
sg9
F0.0001
sg10
I1
ssS"{'src_port': 1922, 'ipv4_dst': '10.0.0.60', 'ipv4_src': '208.80.193.111', 'eth_type': 2048, 'dst_port': 0, 'ip_proto': 17}"
p765
(dp766
g3
I1
sg4
I174
sg5
I1
sg6
F1623897663.099049
sg7
I3
sg8
I0
sg9
F0.0001
sg10
I1
ssS"{'src_port': 2800, 'ipv4_dst': '10.0.0.51', 'ipv4_src': '69.230.100.212', 'eth_type': 2048, 'dst_port': 0, 'ip_proto': 17}"
p767
(dp768
g3
I1
sg4
I199
sg5
I1
sg6
F1623897693.472911
sg7
I36
sg8
I0
sg9
F0.0001
sg10
I1
ssS"{'src_port': 2767, 'ipv4_dst': '241.197.41.147', 'ipv4_src': '10.0.0.41', 'eth_type': 2048, 'dst_port': 0, 'ip_proto': 17}"
p769
(dp770
g3
I0
sg4
I0
sg5
I1
sg6
F1623897632.321657
sg7
I8
sg8
I0
sg9
F0.0001
sg10
I1
ssS"{'src_port': 1305, 'ipv4_dst': '10.0.0.51', 'ipv4_src': '86.43.16.98', 'eth_type': 2048, 'dst_port': 0, 'ip_proto': 17}"
p771
(dp772
g3
I1
sg4
I204
sg5
I1
sg6
F1623897696.925258
sg7
I68
sg8
I204
sg9
F0.0001
sg10
I1
ssS"{'src_port': 2981, 'ipv4_dst': '71.195.101.49', 'ipv4_src': '10.0.0.41', 'eth_type': 2048, 'dst_port': 0, 'ip_proto': 17}"
p773
(dp774
g3
I0
sg4
I0
sg5
I1
sg6
F1623897642.56458
sg7
I4
sg8
I0
sg9
F0.0001
sg10
I1
ssS"{'src_port': 1663, 'ipv4_dst': '71.41.249.55', 'ipv4_src': '10.0.0.60', 'eth_type': 2048, 'dst_port': 0, 'ip_proto': 17}"
p775
(dp776
g3
I0
sg4
I0
sg5
I1
sg6
F1623897690.886827
sg7
I25
sg8
I0
sg9
F0.0001
sg10
I1
ssS"{'src_port': 2800, 'ipv4_dst': '55.224.10.37', 'ipv4_src': '10.0.0.60', 'eth_type': 2048, 'dst_port': 0, 'ip_proto': 17}"
p777
(dp778
g3
I0
sg4
I0
sg5
I1
sg6
F1623897664.446606
sg7
I16
sg8
I0
sg9
F0.0001
sg10
I1
ssS"{'src_port': 2981, 'ipv4_dst': '204.68.200.37', 'ipv4_src': '10.0.0.51', 'eth_type': 2048, 'dst_port': 0, 'ip_proto': 17}"
p779
(dp780
g3
I0
sg4
I0
sg5
I1
sg6
F1623897642.49864
sg7
I18
sg8
I0
sg9
F0.0001
sg10
I1
ssS"{'src_port': 1391, 'ipv4_dst': '3.141.34.22', 'ipv4_src': '10.0.0.60', 'eth_type': 2048, 'dst_port': 0, 'ip_proto': 17}"
p781
(dp782
g3
I0
sg4
I0
sg5
I1
sg6
F1623897650.718203
sg7
I28
sg8
I0
sg9
F0.0001
sg10
I1
ssS"{'src_port': 2981, 'ipv4_dst': '10.0.0.41', 'ipv4_src': '106.254.139.18', 'eth_type': 2048, 'dst_port': 0, 'ip_proto': 17}"
p783
(dp784
g3
I1
sg4
I213
sg5
I1
sg6
F1623897642.298474
sg7
I36
sg8
I0
sg9
F0.0001
sg10
I1
ssS"{'src_port': 1391, 'ipv4_dst': '86.148.38.85', 'ipv4_src': '10.0.0.41', 'eth_type': 2048, 'dst_port': 0, 'ip_proto': 17}"
p785
(dp786
g3
I0
sg4
I0
sg5
I1
sg6
F1623897652.606682
sg7
I27
sg8
I0
sg9
F0.0001
sg10
I1
ssS"{'src_port': 2229, 'ipv4_dst': '10.0.0.60', 'ipv4_src': '213.55.205.216', 'eth_type': 2048, 'dst_port': 0, 'ip_proto': 17}"
p787
(dp788
g3
I1
sg4
I225
sg5
I1
sg6
F1623897696.165825
sg7
I72
sg8
I0
sg9
F0.0001
sg10
I1
ssS"{'src_port': 1418, 'ipv4_dst': '8.73.92.44', 'ipv4_src': '10.0.0.60', 'eth_type': 2048, 'dst_port': 0, 'ip_proto': 17}"
p789
(dp790
g3
I0
sg4
I0
sg5
I1
sg6
F1623897687.07036
sg7
I36
sg8
I0
sg9
F0.0001
sg10
I1
ssS"{'src_port': 2272, 'ipv4_dst': '10.0.0.60', 'ipv4_src': '89.85.33.233', 'eth_type': 2048, 'dst_port': 0, 'ip_proto': 17}"
p791
(dp792
g3
I1
sg4
I170
sg5
I1
sg6
F1623897610.744147
sg7
I0
sg8
I0
sg9
F0.0001
sg10
I1
ssS"{'src_port': 2767, 'ipv4_dst': '128.125.39.44', 'ipv4_src': '10.0.0.60', 'eth_type': 2048, 'dst_port': 0, 'ip_proto': 17}"
p793
(dp794
g3
I0
sg4
I0
sg5
I1
sg6
F1623897632.265582
sg7
I28
sg8
I0
sg9
F0.0001
sg10
I1
ssS"{'src_port': 1418, 'ipv4_dst': '252.52.231.162', 'ipv4_src': '10.0.0.60', 'eth_type': 2048, 'dst_port': 0, 'ip_proto': 17}"
p795
(dp796
g3
I0
sg4
I0
sg5
I1
sg6
F1623897687.163614
sg7
I26
sg8
I0
sg9
F0.0001
sg10
I1
ssS"{'src_port': 2800, 'ipv4_dst': '10.0.0.41', 'ipv4_src': '238.69.123.11', 'eth_type': 2048, 'dst_port': 0, 'ip_proto': 17}"
p797
(dp798
g3
I1
sg4
I169
sg5
I1
sg6
F1623897684.533823
sg7
I4
sg8
I169
sg9
F0.0001
sg10
I1
ssS"{'src_port': 1391, 'ipv4_dst': '10.0.0.60', 'ipv4_src': '160.96.119.70', 'eth_type': 2048, 'dst_port': 0, 'ip_proto': 17}"
p799
(dp800
g3
I1
sg4
I202
sg5
I1
sg6
F1623897652.679689
sg7
I17
sg8
I0
sg9
F0.0001
sg10
I1
ssS"{'src_port': 2767, 'ipv4_dst': '10.0.0.60', 'ipv4_src': '168.67.110.38', 'eth_type': 2048, 'dst_port': 0, 'ip_proto': 17}"
p801
(dp802
g3
I1
sg4
I231
sg5
I1
sg6
F1623897632.265582
sg7
I21
sg8
I0
sg9
F0.0001
sg10
I1
ssS"{'src_port': 1305, 'ipv4_dst': '10.0.0.60', 'ipv4_src': '106.203.79.187', 'eth_type': 2048, 'dst_port': 0, 'ip_proto': 17}"
p803
(dp804
g3
I1
sg4
I174
sg5
I1
sg6
F1623897697.338809
sg7
I36
sg8
I174
sg9
F0.0001
sg10
I1
ssS"{'src_port': 1391, 'ipv4_dst': '10.0.0.41', 'ipv4_src': '184.254.122.197', 'eth_type': 2048, 'dst_port': 0, 'ip_proto': 17}"
p805
(dp806
g3
I1
sg4
I204
sg5
I1
sg6
F1623897652.679689
sg7
I22
sg8
I0
sg9
F0.0001
sg10
I1
ssS"{'src_port': 1731, 'ipv4_dst': '10.0.0.41', 'ipv4_src': '228.88.71.30', 'eth_type': 2048, 'dst_port': 0, 'ip_proto': 17}"
p807
(dp808
g3
I1
sg4
I173
sg5
I1
sg6
F1623897674.903542
sg7
I15
sg8
I0
sg9
F0.0001
sg10
I1
ssS"{'src_port': 2800, 'ipv4_dst': '10.0.0.41', 'ipv4_src': '164.62.5.222', 'eth_type': 2048, 'dst_port': 0, 'ip_proto': 17}"
p809
(dp810
g3
I1
sg4
I206
sg5
I1
sg6
F1623897693.672082
sg7
I2
sg8
I206
sg9
F0.0001
sg10
I1
ssS"{'src_port': 2767, 'ipv4_dst': '10.0.0.60', 'ipv4_src': '128.86.15.181', 'eth_type': 2048, 'dst_port': 0, 'ip_proto': 17}"
p811
(dp812
g3
I1
sg4
I231
sg5
I1
sg6
F1623897632.265582
sg7
I28
sg8
I0
sg9
F0.0001
sg10
I1
ssS"{'src_port': 1204, 'ipv4_dst': '73.167.165.13', 'ipv4_src': '10.0.0.51', 'eth_type': 2048, 'dst_port': 0, 'ip_proto': 17}"
p813
(dp814
g3
I0
sg4
I0
sg5
I1
sg6
F1623897673.655305
sg7
I25
sg8
I0
sg9
F0.0001
sg10
I1
ssS"{'src_port': 1305, 'ipv4_dst': '10.0.0.41', 'ipv4_src': '92.8.151.213', 'eth_type': 2048, 'dst_port': 0, 'ip_proto': 17}"
p815
(dp816
g3
I1
sg4
I213
sg5
I1
sg6
F1623897697.637028
sg7
I2
sg8
I213
sg9
F0.0001
sg10
I1
ssS"{'src_port': 2229, 'ipv4_dst': '10.0.0.41', 'ipv4_src': '184.215.207.111', 'eth_type': 2048, 'dst_port': 0, 'ip_proto': 17}"
p817
(dp818
g3
I1
sg4
I213
sg5
I1
sg6
F1623897696.068722
sg7
I93
sg8
I0
sg9
F0.0001
sg10
I1
ssS"{'src_port': 2800, 'ipv4_dst': '10.0.0.41', 'ipv4_src': '68.81.89.100', 'eth_type': 2048, 'dst_port': 0, 'ip_proto': 17}"
p819
(dp820
g3
I1
sg4
I213
sg5
I1
sg6
F1623897684.247246
sg7
I82
sg8
I0
sg9
F0.0001
sg10
I1
ssS"{'src_port': 1922, 'ipv4_dst': '92.78.85.183', 'ipv4_src': '10.0.0.41', 'eth_type': 2048, 'dst_port': 0, 'ip_proto': 17}"
p821
(dp822
g3
I0
sg4
I0
sg5
I1
sg6
F1623897663.016797
sg7
I56
sg8
I0
sg9
F0.0001
sg10
I1
ssS"{'src_port': 1204, 'ipv4_dst': '10.0.0.51', 'ipv4_src': '1.164.43.180', 'eth_type': 2048, 'dst_port': 0, 'ip_proto': 17}"
p823
(dp824
g3
I0
sg4
I0
sg5
I1
sg6
F1623897671.428518
sg7
I1
sg8
I0
sg9
F0.0001
sg10
I1
ssS"{'src_port': 2981, 'ipv4_dst': '10.0.0.51', 'ipv4_src': '187.4.26.253', 'eth_type': 2048, 'dst_port': 0, 'ip_proto': 17}"
p825
(dp826
g3
I1
sg4
I188
sg5
I1
sg6
F1623897642.235244
sg7
I7
sg8
I0
sg9
F0.0001
sg10
I1
ssS"{'src_port': 1629, 'ipv4_dst': '10.0.0.51', 'ipv4_src': '117.205.20.15', 'eth_type': 2048, 'dst_port': 0, 'ip_proto': 17}"
p827
(dp828
g3
I1
sg4
I199
sg5
I1
sg6
F1623897685.70918
sg7
I15
sg8
I199
sg9
F0.0001
sg10
I1
ssS"{'src_port': 2981, 'ipv4_dst': '118.100.133.12', 'ipv4_src': '10.0.0.41', 'eth_type': 2048, 'dst_port': 0, 'ip_proto': 17}"
p829
(dp830
g3
I0
sg4
I0
sg5
I1
sg6
F1623897642.298474
sg7
I28
sg8
I0
sg9
F0.0001
sg10
I1
ssS"{'src_port': 1204, 'ipv4_dst': '193.195.96.16', 'ipv4_src': '10.0.0.41', 'eth_type': 2048, 'dst_port': 0, 'ip_proto': 17}"
p831
(dp832
g3
I0
sg4
I0
sg5
I1
sg6
F1623897673.739689
sg7
I4
sg8
I0
sg9
F0.0001
sg10
I1
ssS"{'src_port': 1204, 'ipv4_dst': '10.0.0.41', 'ipv4_src': '215.37.89.96', 'eth_type': 2048, 'dst_port': 0, 'ip_proto': 17}"
p833
(dp834
g3
I0
sg4
I0
sg5
I1
sg6
F1623897671.250299
sg7
I36
sg8
I0
sg9
F0.0001
sg10
I1
ssS"{'src_port': 1731, 'ipv4_dst': '39.33.195.241', 'ipv4_src': '10.0.0.51', 'eth_type': 2048, 'dst_port': 0, 'ip_proto': 17}"
p835
(dp836
g3
I0
sg4
I0
sg5
I1
sg6
F1623897674.818121
sg7
I25
sg8
I0
sg9
F0.0001
sg10
I1
ssS"{'src_port': 1418, 'ipv4_dst': '10.0.0.51', 'ipv4_src': '153.33.49.138', 'eth_type': 2048, 'dst_port': 0, 'ip_proto': 17}"
p837
(dp838
g3
I1
sg4
I199
sg5
I1
sg6
F1623897686.576544
sg7
I26
sg8
I0
sg9
F0.0001
sg10
I1
ssS"{'src_port': 2229, 'ipv4_dst': '16.129.96.111', 'ipv4_src': '10.0.0.41', 'eth_type': 2048, 'dst_port': 0, 'ip_proto': 17}"
p839
(dp840
g3
I0
sg4
I0
sg5
I1
sg6
F1623897696.56567
sg7
I24
sg8
I0
sg9
F0.0001
sg10
I1
ssS"{'src_port': 1663, 'ipv4_dst': '10.0.0.51', 'ipv4_src': '18.41.229.160', 'eth_type': 2048, 'dst_port': 0, 'ip_proto': 17}"
p841
(dp842
g3
I1
sg4
I184
sg5
I1
sg6
F1623897690.886827
sg7
I25
sg8
I184
sg9
F0.0001
sg10
I1
ssS"{'src_port': 1663, 'ipv4_dst': '10.0.0.51', 'ipv4_src': '20.212.220.131', 'eth_type': 2048, 'dst_port': 0, 'ip_proto': 17}"
p843
(dp844
g3
I1
sg4
I188
sg5
I1
sg6
F1623897690.683633
sg7
I56
sg8
I188
sg9
F0.0001
sg10
I1
ssS"{'src_port': 2164, 'ipv4_dst': '10.0.0.51', 'ipv4_src': '181.157.185.138', 'eth_type': 2048, 'dst_port': 0, 'ip_proto': 17}"
p845
(dp846
g3
I0
sg4
I0
sg5
I1
sg6
F1623897694.106477
sg7
I10
sg8
I0
sg9
F0.0001
sg10
I1
ssS"{'src_port': 2848, 'ipv4_dst': '10.0.0.60', 'ipv4_src': '240.108.190.81', 'eth_type': 2048, 'dst_port': 0, 'ip_proto': 17}"
p847
(dp848
g3
I0
sg4
I0
sg5
I1
sg6
F1623897696.764549
sg7
I44
sg8
I0
sg9
F0.0001
sg10
I1
ssS"{'src_port': 1391, 'ipv4_dst': '10.0.0.41', 'ipv4_src': '220.207.67.16', 'eth_type': 2048, 'dst_port': 0, 'ip_proto': 17}"
p849
(dp850
g3
I1
sg4
I171
sg5
I1
sg6
F1623897652.679689
sg7
I14
sg8
I0
sg9
F0.0001
sg10
I1
ssS"{'src_port': 1418, 'ipv4_dst': '244.107.61.47', 'ipv4_src': '10.0.0.41', 'eth_type': 2048, 'dst_port': 0, 'ip_proto': 17}"
p851
(dp852
g3
I0
sg4
I0
sg5
I1
sg6
F1623897680.482264
sg7
I81
sg8
I0
sg9
F0.0001
sg10
I1
ssS"{'src_port': 2229, 'ipv4_dst': '233.46.7.143', 'ipv4_src': '10.0.0.41', 'eth_type': 2048, 'dst_port': 0, 'ip_proto': 17}"
p853
(dp854
g3
I0
sg4
I0
sg5
I1
sg6
F1623897696.374242
sg7
I35
sg8
I0
sg9
F0.0001
sg10
I1
ssS"{'src_port': 1305, 'ipv4_dst': '10.0.0.41', 'ipv4_src': '21.98.69.203', 'eth_type': 2048, 'dst_port': 0, 'ip_proto': 17}"
p855
(dp856
g3
I1
sg4
I206
sg5
I1
sg6
F1623897697.235446
sg7
I70
sg8
I206
sg9
F0.0001
sg10
I1
ssS"{'src_port': 2229, 'ipv4_dst': '10.0.0.51', 'ipv4_src': '254.45.13.180', 'eth_type': 2048, 'dst_port': 0, 'ip_proto': 17}"
p857
(dp858
g3
I1
sg4
I188
sg5
I1
sg6
F1623897695.556481
sg7
I57
sg8
I188
sg9
F0.0001
sg10
I1
ssS"{'src_port': 1927, 'ipv4_dst': '10.0.0.51', 'ipv4_src': '3.148.15.69', 'eth_type': 2048, 'dst_port': 0, 'ip_proto': 17}"
p859
(dp860
g3
I0
sg4
I0
sg5
I1
sg6
F1623897693.905895
sg7
I63
sg8
I0
sg9
F0.0001
sg10
I1
ssS"{'src_port': 2238, 'ipv4_dst': '138.185.178.141', 'ipv4_src': '10.0.0.41', 'eth_type': 2048, 'dst_port': 0, 'ip_proto': 17}"
p861
(dp862
g3
I0
sg4
I0
sg5
I1
sg6
F1623897621.252028
sg7
I17
sg8
I0
sg9
F0.0001
sg10
I1
ssS"{'src_port': 1164, 'ipv4_dst': '45.233.82.231', 'ipv4_src': '10.0.0.41', 'eth_type': 2048, 'dst_port': 0, 'ip_proto': 17}"
p863
(dp864
g3
I0
sg4
I0
sg5
I1
sg6
F1623897610.394178
sg7
I12
sg8
I0
sg9
F0.0001
sg10
I1
ssS"{'src_port': 1731, 'ipv4_dst': '10.0.0.41', 'ipv4_src': '189.52.102.62', 'eth_type': 2048, 'dst_port': 0, 'ip_proto': 17}"
p865
(dp866
g3
I1
sg4
I179
sg5
I1
sg6
F1623897674.818121
sg7
I26
sg8
I0
sg9
F0.0001
sg10
I1
ssS"{'src_port': 2229, 'ipv4_dst': '10.0.0.41', 'ipv4_src': '66.66.232.187', 'eth_type': 2048, 'dst_port': 0, 'ip_proto': 17}"
p867
(dp868
g3
I1
sg4
I169
sg5
I1
sg6
F1623897696.56567
sg7
I14
sg8
I169
sg9
F0.0001
sg10
I1
ssS"{'src_port': 1418, 'ipv4_dst': '10.0.0.41', 'ipv4_src': '124.86.192.11', 'eth_type': 2048, 'dst_port': 0, 'ip_proto': 17}"
p869
(dp870
g3
I1
sg4
I213
sg5
I1
sg6
F1623897686.881477
sg7
I79
sg8
I0
sg9
F0.0001
sg10
I1
ssS"{'src_port': 1204, 'ipv4_dst': '10.0.0.41', 'ipv4_src': '142.87.153.96', 'eth_type': 2048, 'dst_port': 0, 'ip_proto': 17}"
p871
(dp872
g3
I0
sg4
I0
sg5
I1
sg6
F1623897673.571044
sg7
I35
sg8
I0
sg9
F0.0001
sg10
I1
ssS"{'src_port': 1663, 'ipv4_dst': '10.0.0.41', 'ipv4_src': '74.219.82.168', 'eth_type': 2048, 'dst_port': 0, 'ip_proto': 17}"
p873
(dp874
g3
I1
sg4
I206
sg5
I1
sg6
F1623897690.582431
sg7
I78
sg8
I206
sg9
F0.0001
sg10
I1
ssS"{'src_port': 2981, 'ipv4_dst': '10.0.0.41', 'ipv4_src': '204.117.148.227', 'eth_type': 2048, 'dst_port': 0, 'ip_proto': 17}"
p875
(dp876
g3
I1
sg4
I206
sg5
I1
sg6
F1623897642.298474
sg7
I21
sg8
I0
sg9
F0.0001
sg10
I1
ssS"{'src_port': 2229, 'ipv4_dst': '10.26.120.206', 'ipv4_src': '10.0.0.41', 'eth_type': 2048, 'dst_port': 0, 'ip_proto': 17}"
p877
(dp878
g3
I0
sg4
I0
sg5
I1
sg6
F1623897696.56567
sg7
I23
sg8
I0
sg9
F0.0001
sg10
I1
ssS"{'src_port': 2182, 'ipv4_dst': '10.0.0.60', 'ipv4_src': '120.117.69.181', 'eth_type': 2048, 'dst_port': 0, 'ip_proto': 17}"
p879
(dp880
g3
I0
sg4
I0
sg5
I1
sg6
F1623897693.77308
sg7
I80
sg8
I0
sg9
F0.0001
sg10
I1
ssS"{'src_port': 2800, 'ipv4_dst': '10.0.0.51', 'ipv4_src': '163.97.138.179', 'eth_type': 2048, 'dst_port': 0, 'ip_proto': 17}"
p881
(dp882
g3
I1
sg4
I214
sg5
I1
sg6
F1623897664.446606
sg7
I16
sg8
I214
sg9
F0.0001
sg10
I1
ssS"{'src_port': 2229, 'ipv4_dst': '10.0.0.41', 'ipv4_src': '47.15.230.247', 'eth_type': 2048, 'dst_port': 0, 'ip_proto': 17}"
p883
(dp884
g3
I1
sg4
I228
sg5
I1
sg6
F1623897695.362042
sg7
I79
sg8
I228
sg9
F0.0001
sg10
I1
ssS"{'src_port': 2800, 'ipv4_dst': '208.178.208.111', 'ipv4_src': '10.0.0.60', 'eth_type': 2048, 'dst_port': 0, 'ip_proto': 17}"
p885
(dp886
g3
I0
sg4
I0
sg5
I1
sg6
F1623897693.574774
sg7
I25
sg8
I0
sg9
F0.0001
sg10
I1
ssS"{'src_port': 2800, 'ipv4_dst': '10.0.0.60', 'ipv4_src': '250.111.225.87', 'eth_type': 2048, 'dst_port': 0, 'ip_proto': 17}"
p887
(dp888
g3
I1
sg4
I195
sg5
I1
sg6
F1623897693.672082
sg7
I1
sg8
I195
sg9
F0.0001
sg10
I1
ssS"{'src_port': 1922, 'ipv4_dst': '10.0.0.60', 'ipv4_src': '107.11.31.43', 'eth_type': 2048, 'dst_port': 0, 'ip_proto': 17}"
p889
(dp890
g3
I1
sg4
I195
sg5
I1
sg6
F1623897662.931214
sg7
I15
sg8
I195
sg9
F0.0001
sg10
I1
ssS"{'src_port': 1629, 'ipv4_dst': '115.132.125.49', 'ipv4_src': '10.0.0.41', 'eth_type': 2048, 'dst_port': 0, 'ip_proto': 17}"
p891
(dp892
g3
I0
sg4
I0
sg5
I1
sg6
F1623897685.165283
sg7
I54
sg8
I0
sg9
F0.0001
sg10
I1
ssS"{'src_port': 2800, 'ipv4_dst': '10.0.0.41', 'ipv4_src': '6.24.46.247', 'eth_type': 2048, 'dst_port': 0, 'ip_proto': 17}"
p893
(dp894
g3
I1
sg4
I171
sg5
I1
sg6
F1623897693.364471
sg7
I57
sg8
I0
sg9
F0.0001
sg10
I1
ssS"{'src_port': 1731, 'ipv4_dst': '10.0.0.41', 'ipv4_src': '99.65.217.119', 'eth_type': 2048, 'dst_port': 0, 'ip_proto': 17}"
p895
(dp896
g3
I1
sg4
I171
sg5
I1
sg6
F1623897674.818121
sg7
I20
sg8
I0
sg9
F0.0001
sg10
I1
ssS"{'src_port': 2800, 'ipv4_dst': '178.170.246.89', 'ipv4_src': '10.0.0.51', 'eth_type': 2048, 'dst_port': 0, 'ip_proto': 17}"
p897
(dp898
g3
I0
sg4
I0
sg5
I1
sg6
F1623897664.359925
sg7
I23
sg8
I0
sg9
F0.0001
sg10
I1
ssS"{'src_port': 2800, 'ipv4_dst': '6.231.140.11', 'ipv4_src': '10.0.0.41', 'eth_type': 2048, 'dst_port': 0, 'ip_proto': 17}"
p899
(dp900
g3
I0
sg4
I0
sg5
I1
sg6
F1623897684.533823
sg7
I3
sg8
I0
sg9
F0.0001
sg10
I1
ssS"{'src_port': 1418, 'ipv4_dst': '10.0.0.41', 'ipv4_src': '119.88.103.17', 'eth_type': 2048, 'dst_port': 0, 'ip_proto': 17}"
p901
(dp902
g3
I1
sg4
I169
sg5
I1
sg6
F1623897687.163614
sg7
I14
sg8
I0
sg9
F0.0001
sg10
I1
ssS"{'src_port': 2800, 'ipv4_dst': '121.148.125.144', 'ipv4_src': '10.0.0.41', 'eth_type': 2048, 'dst_port': 0, 'ip_proto': 17}"
p903
(dp904
g3
I0
sg4
I0
sg5
I1
sg6
F1623897684.35115
sg7
I58
sg8
I0
sg9
F0.0001
sg10
I1
ssS"{'src_port': 1204, 'ipv4_dst': '10.0.0.51', 'ipv4_src': '79.168.57.87', 'eth_type': 2048, 'dst_port': 0, 'ip_proto': 17}"
p905
(dp906
g3
I1
sg4
I169
sg5
I1
sg6
F1623897673.484368
sg7
I53
sg8
I169
sg9
F0.0001
sg10
I1
ssS"{'src_port': 2800, 'ipv4_dst': '140.6.195.103', 'ipv4_src': '10.0.0.41', 'eth_type': 2048, 'dst_port': 0, 'ip_proto': 17}"
p907
(dp908
g3
I0
sg4
I0
sg5
I1
sg6
F1623897684.44511
sg7
I14
sg8
I0
sg9
F0.0001
sg10
I1
ssS"{'src_port': 2800, 'ipv4_dst': '161.204.221.147', 'ipv4_src': '10.0.0.41', 'eth_type': 2048, 'dst_port': 0, 'ip_proto': 17}"
p909
(dp910
g3
I0
sg4
I0
sg5
I1
sg6
F1623897693.574774
sg7
I25
sg8
I0
sg9
F0.0001
sg10
I1
ssS"{'src_port': 1305, 'ipv4_dst': '10.0.0.60', 'ipv4_src': '124.38.219.197', 'eth_type': 2048, 'dst_port': 0, 'ip_proto': 17}"
p911
(dp912
g3
I1
sg4
I225
sg5
I1
sg6
F1623897697.134541
sg7
I57
sg8
I225
sg9
F0.0001
sg10
I1
ssS"{'src_port': 1731, 'ipv4_dst': '159.227.86.61', 'ipv4_src': '10.0.0.60', 'eth_type': 2048, 'dst_port': 0, 'ip_proto': 17}"
p913
(dp914
g3
I0
sg4
I0
sg5
I1
sg6
F1623897674.903542
sg7
I12
sg8
I0
sg9
F0.0001
sg10
I1
ssS"{'src_port': 2800, 'ipv4_dst': '10.0.0.41', 'ipv4_src': '111.109.111.249', 'eth_type': 2048, 'dst_port': 0, 'ip_proto': 17}"
p915
(dp916
g3
I1
sg4
I177
sg5
I1
sg6
F1623897684.533823
sg7
I14
sg8
I177
sg9
F0.0001
sg10
I1
ssS"{'src_port': 0, 'ipv4_dst': '10.0.0.41', 'ipv4_src': '107.201.157.217', 'eth_type': 2048, 'dst_port': 0, 'ip_proto': 0}"
p917
(dp918
g3
I1
sg4
I213
sg5
I1
sg6
F1623897600.031204
sg7
I2
sg8
I0
sg9
F0.0001
sg10
I1
ssS"{'src_port': 1731, 'ipv4_dst': '10.0.0.41', 'ipv4_src': '23.6.109.156', 'eth_type': 2048, 'dst_port': 0, 'ip_proto': 17}"
p919
(dp920
g3
I1
sg4
I169
sg5
I1
sg6
F1623897674.988997
sg7
I4
sg8
I169
sg9
F0.0001
sg10
I1
ssS"{'src_port': 2229, 'ipv4_dst': '247.209.17.74', 'ipv4_src': '10.0.0.60', 'eth_type': 2048, 'dst_port': 0, 'ip_proto': 17}"
p921
(dp922
g3
I0
sg4
I0
sg5
I1
sg6
F1623897696.374242
sg7
I36
sg8
I0
sg9
F0.0001
sg10
I1
ssS"{'src_port': 1305, 'ipv4_dst': '10.0.0.60', 'ipv4_src': '37.50.179.29', 'eth_type': 2048, 'dst_port': 0, 'ip_proto': 17}"
p923
(dp924
g3
I1
sg4
I195
sg5
I1
sg6
F1623897697.338809
sg7
I46
sg8
I195
sg9
F0.0001
sg10
I1
ssS"{'src_port': 2272, 'ipv4_dst': '19.163.168.15', 'ipv4_src': '10.0.0.41', 'eth_type': 2048, 'dst_port': 0, 'ip_proto': 17}"
p925
(dp926
g3
I0
sg4
I0
sg5
I1
sg6
F1623897610.732317
sg7
I3
sg8
I0
sg9
F0.0001
sg10
I1
ssS"{'src_port': 1731, 'ipv4_dst': '10.0.0.51', 'ipv4_src': '82.59.27.5', 'eth_type': 2048, 'dst_port': 0, 'ip_proto': 17}"
p927
(dp928
g3
I1
sg4
I169
sg5
I1
sg6
F1623897674.261253
sg7
I52
sg8
I0
sg9
F0.0001
sg10
I1
ssS"{'src_port': 2229, 'ipv4_dst': '10.0.0.41', 'ipv4_src': '196.215.144.12', 'eth_type': 2048, 'dst_port': 0, 'ip_proto': 17}"
p929
(dp930
g3
I1
sg4
I173
sg5
I1
sg6
F1623897696.374242
sg7
I40
sg8
I173
sg9
F0.0001
sg10
I1
ssS"{'src_port': 2229, 'ipv4_dst': '10.0.0.51', 'ipv4_src': '202.163.185.178', 'eth_type': 2048, 'dst_port': 0, 'ip_proto': 17}"
p931
(dp932
g3
I1
sg4
I195
sg5
I1
sg6
F1623897696.068722
sg7
I81
sg8
I0
sg9
F0.0001
sg10
I1
ssS"{'src_port': 1629, 'ipv4_dst': '10.0.0.60', 'ipv4_src': '73.160.122.67', 'eth_type': 2048, 'dst_port': 0, 'ip_proto': 17}"
p933
(dp934
g3
I1
sg4
I191
sg5
I1
sg6
F1623897685.799025
sg7
I11
sg8
I191
sg9
F0.0001
sg10
I1
ssS"{'src_port': 1629, 'ipv4_dst': '28.81.132.10', 'ipv4_src': '10.0.0.51', 'eth_type': 2048, 'dst_port': 0, 'ip_proto': 17}"
p935
(dp936
g3
I0
sg4
I0
sg5
I1
sg6
F1623897685.075406
sg7
I58
sg8
I0
sg9
F0.0001
sg10
I1
ssS"{'src_port': 2767, 'ipv4_dst': '78.194.109.171', 'ipv4_src': '10.0.0.41', 'eth_type': 2048, 'dst_port': 0, 'ip_proto': 17}"
p937
(dp938
g3
I0
sg4
I0
sg5
I1
sg6
F1623897632.265582
sg7
I24
sg8
I0
sg9
F0.0001
sg10
I1
ssS"{'src_port': 1305, 'ipv4_dst': '35.146.97.232', 'ipv4_src': '10.0.0.41', 'eth_type': 2048, 'dst_port': 0, 'ip_proto': 17}"
p939
(dp940
g3
I0
sg4
I0
sg5
I1
sg6
F1623897697.235446
sg7
I56
sg8
I0
sg9
F0.0001
sg10
I1
ssS"{'src_port': 1204, 'ipv4_dst': '192.184.205.130', 'ipv4_src': '10.0.0.51', 'eth_type': 2048, 'dst_port': 0, 'ip_proto': 17}"
p941
(dp942
g3
I0
sg4
I0
sg5
I1
sg6
F1623897673.484368
sg7
I53
sg8
I0
sg9
F0.0001
sg10
I1
ssS"{'src_port': 2229, 'ipv4_dst': '138.185.178.141', 'ipv4_src': '10.0.0.41', 'eth_type': 2048, 'dst_port': 0, 'ip_proto': 17}"
p943
(dp944
g3
I0
sg4
I0
sg5
I1
sg6
F1623897696.068722
sg7
I88
sg8
I0
sg9
F0.0001
sg10
I1
ssS"{'src_port': 2229, 'ipv4_dst': '10.0.0.41', 'ipv4_src': '0.208.232.148', 'eth_type': 2048, 'dst_port': 0, 'ip_proto': 17}"
p945
(dp946
g3
I0
sg4
I0
sg5
I1
sg6
F1623897694.863308
sg7
I2
sg8
I0
sg9
F0.0001
sg10
I1
ssS"{'src_port': 2229, 'ipv4_dst': '10.0.0.41', 'ipv4_src': '17.3.187.137', 'eth_type': 2048, 'dst_port': 0, 'ip_proto': 17}"
p947
(dp948
g3
I1
sg4
I206
sg5
I1
sg6
F1623897695.459731
sg7
I74
sg8
I206
sg9
F0.0001
sg10
I1
ssS"{'src_port': 1731, 'ipv4_dst': '205.126.238.191', 'ipv4_src': '10.0.0.60', 'eth_type': 2048, 'dst_port': 0, 'ip_proto': 17}"
p949
(dp950
g3
I0
sg4
I0
sg5
I1
sg6
F1623897674.903542
sg7
I5
sg8
I0
sg9
F0.0001
sg10
I1
ssS"{'src_port': 1418, 'ipv4_dst': '10.0.0.51', 'ipv4_src': '43.90.171.168', 'eth_type': 2048, 'dst_port': 0, 'ip_proto': 17}"
p951
(dp952
g3
I1
sg4
I199
sg5
I1
sg6
F1623897686.667995
sg7
I22
sg8
I0
sg9
F0.0001
sg10
I1
ssS"{'src_port': 1305, 'ipv4_dst': '186.107.154.10', 'ipv4_src': '10.0.0.51', 'eth_type': 2048, 'dst_port': 0, 'ip_proto': 17}"
p953
(dp954
g3
I0
sg4
I0
sg5
I1
sg6
F1623897697.73601
sg7
I2
sg8
I0
sg9
F0.0001
sg10
I1
ssS"{'src_port': 1305, 'ipv4_dst': '212.247.224.93', 'ipv4_src': '10.0.0.41', 'eth_type': 2048, 'dst_port': 0, 'ip_proto': 17}"
p955
(dp956
g3
I0
sg4
I0
sg5
I1
sg6
F1623897697.637028
sg7
I13
sg8
I0
sg9
F0.0001
sg10
I1
ssS"{'src_port': 2229, 'ipv4_dst': '10.0.0.41', 'ipv4_src': '154.198.168.198', 'eth_type': 2048, 'dst_port': 0, 'ip_proto': 17}"
p957
(dp958
g3
I1
sg4
I173
sg5
I1
sg6
F1623897695.770414
sg7
I36
sg8
I173
sg9
F0.0001
sg10
I1
ssS"{'src_port': 1305, 'ipv4_dst': '10.0.0.41', 'ipv4_src': '25.135.159.12', 'eth_type': 2048, 'dst_port': 0, 'ip_proto': 17}"
p959
(dp960
g3
I1
sg4
I228
sg5
I1
sg6
F1623897697.027089
sg7
I85
sg8
I228
sg9
F0.0001
sg10
I1
ssS"{'src_port': 1418, 'ipv4_dst': '10.0.0.60', 'ipv4_src': '129.51.195.15', 'eth_type': 2048, 'dst_port': 0, 'ip_proto': 17}"
p961
(dp962
g3
I1
sg4
I202
sg5
I1
sg6
F1623897687.07036
sg7
I47
sg8
I0
sg9
F0.0001
sg10
I1
ssS"{'src_port': 2229, 'ipv4_dst': '67.71.36.124', 'ipv4_src': '10.0.0.51', 'eth_type': 2048, 'dst_port': 0, 'ip_proto': 17}"
p963
(dp964
g3
I0
sg4
I0
sg5
I1
sg6
F1623897695.770414
sg7
I25
sg8
I0
sg9
F0.0001
sg10
I1
ssS"{'src_port': 2229, 'ipv4_dst': '10.0.0.60', 'ipv4_src': '181.11.51.248', 'eth_type': 2048, 'dst_port': 0, 'ip_proto': 17}"
p965
(dp966
g3
I0
sg4
I0
sg5
I1
sg6
F1623897696.374242
sg7
I42
sg8
I199
sg9
F0.0001
sg10
I1
ssS"{'src_port': 1418, 'ipv4_dst': '10.0.0.41', 'ipv4_src': '142.63.191.216', 'eth_type': 2048, 'dst_port': 0, 'ip_proto': 17}"
p967
(dp968
g3
I0
sg4
I0
sg5
I1
sg6
F1623897687.163614
sg7
I26
sg8
I171
sg9
F0.0001
sg10
I1
ssS"{'src_port': 1305, 'ipv4_dst': '10.0.0.60', 'ipv4_src': '145.26.238.172', 'eth_type': 2048, 'dst_port': 0, 'ip_proto': 17}"
p969
(dp970
g3
I1
sg4
I191
sg5
I1
sg6
F1623897697.539215
sg7
I25
sg8
I191
sg9
F0.0001
sg10
I1
ssS"{'src_port': 2229, 'ipv4_dst': '10.0.0.60', 'ipv4_src': '132.123.184.248', 'eth_type': 2048, 'dst_port': 0, 'ip_proto': 17}"
p971
(dp972
g3
I1
sg4
I195
sg5
I1
sg6
F1623897696.669206
sg7
I1
sg8
I0
sg9
F0.0001
sg10
I1
ssS"{'src_port': 1204, 'ipv4_dst': '10.0.0.60', 'ipv4_src': '80.190.18.209', 'eth_type': 2048, 'dst_port': 0, 'ip_proto': 17}"
p973
(dp974
g3
I1
sg4
I225
sg5
I1
sg6
F1623897673.484368
sg7
I48
sg8
I225
sg9
F0.0001
sg10
I1
ssS"{'src_port': 1629, 'ipv4_dst': '10.0.0.51', 'ipv4_src': '98.3.113.30', 'eth_type': 2048, 'dst_port': 0, 'ip_proto': 17}"
p975
(dp976
g3
I0
sg4
I0
sg5
I1
sg6
F1623897685.075406
sg7
I57
sg8
I0
sg9
F0.0001
sg10
I1
ssS"{'src_port': 2229, 'ipv4_dst': '129.134.152.215', 'ipv4_src': '10.0.0.51', 'eth_type': 2048, 'dst_port': 0, 'ip_proto': 17}"
p977
(dp978
g3
I0
sg4
I0
sg5
I1
sg6
F1623897696.165825
sg7
I76
sg8
I0
sg9
F0.0001
sg10
I1
ssS"{'src_port': 1663, 'ipv4_dst': '169.62.6.82', 'ipv4_src': '10.0.0.60', 'eth_type': 2048, 'dst_port': 0, 'ip_proto': 17}"
p979
(dp980
g3
I0
sg4
I0
sg5
I1
sg6
F1623897690.886827
sg7
I25
sg8
I0
sg9
F0.0001
sg10
I1
ssS"{'src_port': 2229, 'ipv4_dst': '10.0.0.51', 'ipv4_src': '43.90.171.168', 'eth_type': 2048, 'dst_port': 0, 'ip_proto': 17}"
p981
(dp982
g3
I1
sg4
I199
sg5
I1
sg6
F1623897695.770414
sg7
I32
sg8
I199
sg9
F0.0001
sg10
I1
ssS"{'src_port': 1663, 'ipv4_dst': '10.0.0.51', 'ipv4_src': '55.78.61.14', 'eth_type': 2048, 'dst_port': 0, 'ip_proto': 17}"
p983
(dp984
g3
I1
sg4
I188
sg5
I1
sg6
F1623897690.683633
sg7
I53
sg8
I188
sg9
F0.0001
sg10
I1
ssS"{'src_port': 1418, 'ipv4_dst': '10.0.0.41', 'ipv4_src': '236.138.232.40', 'eth_type': 2048, 'dst_port': 0, 'ip_proto': 17}"
p985
(dp986
g3
I1
sg4
I204
sg5
I1
sg6
F1623897686.975615
sg7
I58
sg8
I0
sg9
F0.0001
sg10
I1
ssS"{'src_port': 2229, 'ipv4_dst': '141.203.204.104', 'ipv4_src': '10.0.0.51', 'eth_type': 2048, 'dst_port': 0, 'ip_proto': 17}"
p987
(dp988
g3
I0
sg4
I0
sg5
I1
sg6
F1623897696.165825
sg7
I72
sg8
I0
sg9
F0.0001
sg10
I1
ssS"{'src_port': 1391, 'ipv4_dst': '10.0.0.41', 'ipv4_src': '88.135.56.40', 'eth_type': 2054, 'dst_port': 0, 'ip_proto': 17}"
p989
(dp990
g3
I2
sg4
I84
sg5
I1
sg6
F1623897652.328311
sg7
I92
sg8
I42
sg9
F0.0001
sg10
I1
ssS"{'src_port': 1204, 'ipv4_dst': '215.135.99.234', 'ipv4_src': '10.0.0.41', 'eth_type': 2048, 'dst_port': 0, 'ip_proto': 17}"
p991
(dp992
g3
I0
sg4
I0
sg5
I1
sg6
F1623897673.484368
sg7
I47
sg8
I0
sg9
F0.0001
sg10
I1
ssS"{'src_port': 1629, 'ipv4_dst': '125.134.144.6', 'ipv4_src': '10.0.0.51', 'eth_type': 2048, 'dst_port': 0, 'ip_proto': 17}"
p993
(dp994
g3
I0
sg4
I0
sg5
I1
sg6
F1623897685.075406
sg7
I66
sg8
I0
sg9
F0.0001
sg10
I1
ssS"{'src_port': 2800, 'ipv4_dst': '10.0.0.60', 'ipv4_src': '171.10.107.213', 'eth_type': 2048, 'dst_port': 0, 'ip_proto': 17}"
p995
(dp996
g3
I1
sg4
I195
sg5
I1
sg6
F1623897693.672082
sg7
I1
sg8
I195
sg9
F0.0001
sg10
I1
ssS"{'src_port': 1663, 'ipv4_dst': '67.20.194.68', 'ipv4_src': '10.0.0.51', 'eth_type': 2048, 'dst_port': 0, 'ip_proto': 17}"
p997
(dp998
g3
I0
sg4
I0
sg5
I1
sg6
F1623897691.08698
sg7
I2
sg8
I0
sg9
F0.0001
sg10
I1
ssS"{'src_port': 2229, 'ipv4_dst': '10.0.0.60', 'ipv4_src': '60.190.96.4', 'eth_type': 2048, 'dst_port': 0, 'ip_proto': 17}"
p999
(dp1000
g3
I1
sg4
I202
sg5
I1
sg6
F1623897696.26296
sg7
I50
sg8
I0
sg9
F0.0001
sg10
I1
ssS"{'src_port': 1305, 'ipv4_dst': '119.225.160.70', 'ipv4_src': '10.0.0.60', 'eth_type': 2048, 'dst_port': 0, 'ip_proto': 17}"
p1001
(dp1002
g3
I0
sg4
I0
sg5
I1
sg6
F1623897697.539215
sg7
I21
sg8
I0
sg9
F0.0001
sg10
I1
ssS"{'src_port': 2172, 'ipv4_dst': '10.0.0.51', 'ipv4_src': '172.64.81.157', 'eth_type': 2048, 'dst_port': 0, 'ip_proto': 17}"
p1003
(dp1004
g3
I0
sg4
I0
sg5
I1
sg6
F1623897694.106477
sg7
I4
sg8
I0
sg9
F0.0001
sg10
I1
ssS"{'src_port': 1305, 'ipv4_dst': '10.0.0.41', 'ipv4_src': '37.59.72.53', 'eth_type': 2048, 'dst_port': 0, 'ip_proto': 17}"
p1005
(dp1006
g3
I1
sg4
I171
sg5
I1
sg6
F1623897697.439275
sg7
I43
sg8
I171
sg9
F0.0001
sg10
I1
ssS"{'src_port': 2229, 'ipv4_dst': '120.117.69.181', 'ipv4_src': '10.0.0.60', 'eth_type': 2048, 'dst_port': 0, 'ip_proto': 17}"
p1007
(dp1008
g3
I0
sg4
I0
sg5
I1
sg6
F1623897696.068722
sg7
I80
sg8
I0
sg9
F0.0001
sg10
I1
ss.